
Prova:     file format elf64-x86-64


Disassembly of section .init:

0000000000002000 <_init>:
    2000:	f3 0f 1e fa          	endbr64 
    2004:	48 83 ec 08          	sub    $0x8,%rsp
    2008:	48 8b 05 d9 6f 00 00 	mov    0x6fd9(%rip),%rax        # 8fe8 <__gmon_start__>
    200f:	48 85 c0             	test   %rax,%rax
    2012:	74 02                	je     2016 <_init+0x16>
    2014:	ff d0                	callq  *%rax
    2016:	48 83 c4 08          	add    $0x8,%rsp
    201a:	c3                   	retq   

Disassembly of section .plt:

0000000000002020 <.plt>:
    2020:	ff 35 ba 6d 00 00    	pushq  0x6dba(%rip)        # 8de0 <_GLOBAL_OFFSET_TABLE_+0x8>
    2026:	f2 ff 25 bb 6d 00 00 	bnd jmpq *0x6dbb(%rip)        # 8de8 <_GLOBAL_OFFSET_TABLE_+0x10>
    202d:	0f 1f 00             	nopl   (%rax)
    2030:	f3 0f 1e fa          	endbr64 
    2034:	68 00 00 00 00       	pushq  $0x0
    2039:	f2 e9 e1 ff ff ff    	bnd jmpq 2020 <.plt>
    203f:	90                   	nop
    2040:	f3 0f 1e fa          	endbr64 
    2044:	68 01 00 00 00       	pushq  $0x1
    2049:	f2 e9 d1 ff ff ff    	bnd jmpq 2020 <.plt>
    204f:	90                   	nop
    2050:	f3 0f 1e fa          	endbr64 
    2054:	68 02 00 00 00       	pushq  $0x2
    2059:	f2 e9 c1 ff ff ff    	bnd jmpq 2020 <.plt>
    205f:	90                   	nop
    2060:	f3 0f 1e fa          	endbr64 
    2064:	68 03 00 00 00       	pushq  $0x3
    2069:	f2 e9 b1 ff ff ff    	bnd jmpq 2020 <.plt>
    206f:	90                   	nop
    2070:	f3 0f 1e fa          	endbr64 
    2074:	68 04 00 00 00       	pushq  $0x4
    2079:	f2 e9 a1 ff ff ff    	bnd jmpq 2020 <.plt>
    207f:	90                   	nop
    2080:	f3 0f 1e fa          	endbr64 
    2084:	68 05 00 00 00       	pushq  $0x5
    2089:	f2 e9 91 ff ff ff    	bnd jmpq 2020 <.plt>
    208f:	90                   	nop
    2090:	f3 0f 1e fa          	endbr64 
    2094:	68 06 00 00 00       	pushq  $0x6
    2099:	f2 e9 81 ff ff ff    	bnd jmpq 2020 <.plt>
    209f:	90                   	nop
    20a0:	f3 0f 1e fa          	endbr64 
    20a4:	68 07 00 00 00       	pushq  $0x7
    20a9:	f2 e9 71 ff ff ff    	bnd jmpq 2020 <.plt>
    20af:	90                   	nop
    20b0:	f3 0f 1e fa          	endbr64 
    20b4:	68 08 00 00 00       	pushq  $0x8
    20b9:	f2 e9 61 ff ff ff    	bnd jmpq 2020 <.plt>
    20bf:	90                   	nop
    20c0:	f3 0f 1e fa          	endbr64 
    20c4:	68 09 00 00 00       	pushq  $0x9
    20c9:	f2 e9 51 ff ff ff    	bnd jmpq 2020 <.plt>
    20cf:	90                   	nop
    20d0:	f3 0f 1e fa          	endbr64 
    20d4:	68 0a 00 00 00       	pushq  $0xa
    20d9:	f2 e9 41 ff ff ff    	bnd jmpq 2020 <.plt>
    20df:	90                   	nop
    20e0:	f3 0f 1e fa          	endbr64 
    20e4:	68 0b 00 00 00       	pushq  $0xb
    20e9:	f2 e9 31 ff ff ff    	bnd jmpq 2020 <.plt>
    20ef:	90                   	nop
    20f0:	f3 0f 1e fa          	endbr64 
    20f4:	68 0c 00 00 00       	pushq  $0xc
    20f9:	f2 e9 21 ff ff ff    	bnd jmpq 2020 <.plt>
    20ff:	90                   	nop
    2100:	f3 0f 1e fa          	endbr64 
    2104:	68 0d 00 00 00       	pushq  $0xd
    2109:	f2 e9 11 ff ff ff    	bnd jmpq 2020 <.plt>
    210f:	90                   	nop
    2110:	f3 0f 1e fa          	endbr64 
    2114:	68 0e 00 00 00       	pushq  $0xe
    2119:	f2 e9 01 ff ff ff    	bnd jmpq 2020 <.plt>
    211f:	90                   	nop
    2120:	f3 0f 1e fa          	endbr64 
    2124:	68 0f 00 00 00       	pushq  $0xf
    2129:	f2 e9 f1 fe ff ff    	bnd jmpq 2020 <.plt>
    212f:	90                   	nop
    2130:	f3 0f 1e fa          	endbr64 
    2134:	68 10 00 00 00       	pushq  $0x10
    2139:	f2 e9 e1 fe ff ff    	bnd jmpq 2020 <.plt>
    213f:	90                   	nop
    2140:	f3 0f 1e fa          	endbr64 
    2144:	68 11 00 00 00       	pushq  $0x11
    2149:	f2 e9 d1 fe ff ff    	bnd jmpq 2020 <.plt>
    214f:	90                   	nop
    2150:	f3 0f 1e fa          	endbr64 
    2154:	68 12 00 00 00       	pushq  $0x12
    2159:	f2 e9 c1 fe ff ff    	bnd jmpq 2020 <.plt>
    215f:	90                   	nop
    2160:	f3 0f 1e fa          	endbr64 
    2164:	68 13 00 00 00       	pushq  $0x13
    2169:	f2 e9 b1 fe ff ff    	bnd jmpq 2020 <.plt>
    216f:	90                   	nop
    2170:	f3 0f 1e fa          	endbr64 
    2174:	68 14 00 00 00       	pushq  $0x14
    2179:	f2 e9 a1 fe ff ff    	bnd jmpq 2020 <.plt>
    217f:	90                   	nop
    2180:	f3 0f 1e fa          	endbr64 
    2184:	68 15 00 00 00       	pushq  $0x15
    2189:	f2 e9 91 fe ff ff    	bnd jmpq 2020 <.plt>
    218f:	90                   	nop
    2190:	f3 0f 1e fa          	endbr64 
    2194:	68 16 00 00 00       	pushq  $0x16
    2199:	f2 e9 81 fe ff ff    	bnd jmpq 2020 <.plt>
    219f:	90                   	nop
    21a0:	f3 0f 1e fa          	endbr64 
    21a4:	68 17 00 00 00       	pushq  $0x17
    21a9:	f2 e9 71 fe ff ff    	bnd jmpq 2020 <.plt>
    21af:	90                   	nop
    21b0:	f3 0f 1e fa          	endbr64 
    21b4:	68 18 00 00 00       	pushq  $0x18
    21b9:	f2 e9 61 fe ff ff    	bnd jmpq 2020 <.plt>
    21bf:	90                   	nop
    21c0:	f3 0f 1e fa          	endbr64 
    21c4:	68 19 00 00 00       	pushq  $0x19
    21c9:	f2 e9 51 fe ff ff    	bnd jmpq 2020 <.plt>
    21cf:	90                   	nop
    21d0:	f3 0f 1e fa          	endbr64 
    21d4:	68 1a 00 00 00       	pushq  $0x1a
    21d9:	f2 e9 41 fe ff ff    	bnd jmpq 2020 <.plt>
    21df:	90                   	nop
    21e0:	f3 0f 1e fa          	endbr64 
    21e4:	68 1b 00 00 00       	pushq  $0x1b
    21e9:	f2 e9 31 fe ff ff    	bnd jmpq 2020 <.plt>
    21ef:	90                   	nop
    21f0:	f3 0f 1e fa          	endbr64 
    21f4:	68 1c 00 00 00       	pushq  $0x1c
    21f9:	f2 e9 21 fe ff ff    	bnd jmpq 2020 <.plt>
    21ff:	90                   	nop
    2200:	f3 0f 1e fa          	endbr64 
    2204:	68 1d 00 00 00       	pushq  $0x1d
    2209:	f2 e9 11 fe ff ff    	bnd jmpq 2020 <.plt>
    220f:	90                   	nop
    2210:	f3 0f 1e fa          	endbr64 
    2214:	68 1e 00 00 00       	pushq  $0x1e
    2219:	f2 e9 01 fe ff ff    	bnd jmpq 2020 <.plt>
    221f:	90                   	nop
    2220:	f3 0f 1e fa          	endbr64 
    2224:	68 1f 00 00 00       	pushq  $0x1f
    2229:	f2 e9 f1 fd ff ff    	bnd jmpq 2020 <.plt>
    222f:	90                   	nop
    2230:	f3 0f 1e fa          	endbr64 
    2234:	68 20 00 00 00       	pushq  $0x20
    2239:	f2 e9 e1 fd ff ff    	bnd jmpq 2020 <.plt>
    223f:	90                   	nop
    2240:	f3 0f 1e fa          	endbr64 
    2244:	68 21 00 00 00       	pushq  $0x21
    2249:	f2 e9 d1 fd ff ff    	bnd jmpq 2020 <.plt>
    224f:	90                   	nop
    2250:	f3 0f 1e fa          	endbr64 
    2254:	68 22 00 00 00       	pushq  $0x22
    2259:	f2 e9 c1 fd ff ff    	bnd jmpq 2020 <.plt>
    225f:	90                   	nop
    2260:	f3 0f 1e fa          	endbr64 
    2264:	68 23 00 00 00       	pushq  $0x23
    2269:	f2 e9 b1 fd ff ff    	bnd jmpq 2020 <.plt>
    226f:	90                   	nop
    2270:	f3 0f 1e fa          	endbr64 
    2274:	68 24 00 00 00       	pushq  $0x24
    2279:	f2 e9 a1 fd ff ff    	bnd jmpq 2020 <.plt>
    227f:	90                   	nop
    2280:	f3 0f 1e fa          	endbr64 
    2284:	68 25 00 00 00       	pushq  $0x25
    2289:	f2 e9 91 fd ff ff    	bnd jmpq 2020 <.plt>
    228f:	90                   	nop
    2290:	f3 0f 1e fa          	endbr64 
    2294:	68 26 00 00 00       	pushq  $0x26
    2299:	f2 e9 81 fd ff ff    	bnd jmpq 2020 <.plt>
    229f:	90                   	nop
    22a0:	f3 0f 1e fa          	endbr64 
    22a4:	68 27 00 00 00       	pushq  $0x27
    22a9:	f2 e9 71 fd ff ff    	bnd jmpq 2020 <.plt>
    22af:	90                   	nop
    22b0:	f3 0f 1e fa          	endbr64 
    22b4:	68 28 00 00 00       	pushq  $0x28
    22b9:	f2 e9 61 fd ff ff    	bnd jmpq 2020 <.plt>
    22bf:	90                   	nop
    22c0:	f3 0f 1e fa          	endbr64 
    22c4:	68 29 00 00 00       	pushq  $0x29
    22c9:	f2 e9 51 fd ff ff    	bnd jmpq 2020 <.plt>
    22cf:	90                   	nop
    22d0:	f3 0f 1e fa          	endbr64 
    22d4:	68 2a 00 00 00       	pushq  $0x2a
    22d9:	f2 e9 41 fd ff ff    	bnd jmpq 2020 <.plt>
    22df:	90                   	nop
    22e0:	f3 0f 1e fa          	endbr64 
    22e4:	68 2b 00 00 00       	pushq  $0x2b
    22e9:	f2 e9 31 fd ff ff    	bnd jmpq 2020 <.plt>
    22ef:	90                   	nop
    22f0:	f3 0f 1e fa          	endbr64 
    22f4:	68 2c 00 00 00       	pushq  $0x2c
    22f9:	f2 e9 21 fd ff ff    	bnd jmpq 2020 <.plt>
    22ff:	90                   	nop
    2300:	f3 0f 1e fa          	endbr64 
    2304:	68 2d 00 00 00       	pushq  $0x2d
    2309:	f2 e9 11 fd ff ff    	bnd jmpq 2020 <.plt>
    230f:	90                   	nop
    2310:	f3 0f 1e fa          	endbr64 
    2314:	68 2e 00 00 00       	pushq  $0x2e
    2319:	f2 e9 01 fd ff ff    	bnd jmpq 2020 <.plt>
    231f:	90                   	nop
    2320:	f3 0f 1e fa          	endbr64 
    2324:	68 2f 00 00 00       	pushq  $0x2f
    2329:	f2 e9 f1 fc ff ff    	bnd jmpq 2020 <.plt>
    232f:	90                   	nop
    2330:	f3 0f 1e fa          	endbr64 
    2334:	68 30 00 00 00       	pushq  $0x30
    2339:	f2 e9 e1 fc ff ff    	bnd jmpq 2020 <.plt>
    233f:	90                   	nop
    2340:	f3 0f 1e fa          	endbr64 
    2344:	68 31 00 00 00       	pushq  $0x31
    2349:	f2 e9 d1 fc ff ff    	bnd jmpq 2020 <.plt>
    234f:	90                   	nop
    2350:	f3 0f 1e fa          	endbr64 
    2354:	68 32 00 00 00       	pushq  $0x32
    2359:	f2 e9 c1 fc ff ff    	bnd jmpq 2020 <.plt>
    235f:	90                   	nop
    2360:	f3 0f 1e fa          	endbr64 
    2364:	68 33 00 00 00       	pushq  $0x33
    2369:	f2 e9 b1 fc ff ff    	bnd jmpq 2020 <.plt>
    236f:	90                   	nop
    2370:	f3 0f 1e fa          	endbr64 
    2374:	68 34 00 00 00       	pushq  $0x34
    2379:	f2 e9 a1 fc ff ff    	bnd jmpq 2020 <.plt>
    237f:	90                   	nop
    2380:	f3 0f 1e fa          	endbr64 
    2384:	68 35 00 00 00       	pushq  $0x35
    2389:	f2 e9 91 fc ff ff    	bnd jmpq 2020 <.plt>
    238f:	90                   	nop
    2390:	f3 0f 1e fa          	endbr64 
    2394:	68 36 00 00 00       	pushq  $0x36
    2399:	f2 e9 81 fc ff ff    	bnd jmpq 2020 <.plt>
    239f:	90                   	nop
    23a0:	f3 0f 1e fa          	endbr64 
    23a4:	68 37 00 00 00       	pushq  $0x37
    23a9:	f2 e9 71 fc ff ff    	bnd jmpq 2020 <.plt>
    23af:	90                   	nop

Disassembly of section .plt.got:

00000000000023b0 <__cxa_finalize@plt>:
    23b0:	f3 0f 1e fa          	endbr64 
    23b4:	f2 ff 25 fd 6b 00 00 	bnd jmpq *0x6bfd(%rip)        # 8fb8 <__cxa_finalize@GLIBC_2.2.5>
    23bb:	0f 1f 44 00 00       	nopl   0x0(%rax,%rax,1)

Disassembly of section .plt.sec:

00000000000023c0 <printf@plt>:
    23c0:	f3 0f 1e fa          	endbr64 
    23c4:	f2 ff 25 25 6a 00 00 	bnd jmpq *0x6a25(%rip)        # 8df0 <printf@GLIBC_2.2.5>
    23cb:	0f 1f 44 00 00       	nopl   0x0(%rax,%rax,1)

00000000000023d0 <_ZNSaIcED2Ev@plt>:
    23d0:	f3 0f 1e fa          	endbr64 
    23d4:	f2 ff 25 1d 6a 00 00 	bnd jmpq *0x6a1d(%rip)        # 8df8 <_ZNSaIcED2Ev@GLIBCXX_3.4>
    23db:	0f 1f 44 00 00       	nopl   0x0(%rax,%rax,1)

00000000000023e0 <_ZNSt14basic_ifstreamIcSt11char_traitsIcEED1Ev@plt>:
    23e0:	f3 0f 1e fa          	endbr64 
    23e4:	f2 ff 25 15 6a 00 00 	bnd jmpq *0x6a15(%rip)        # 8e00 <_ZNSt14basic_ifstreamIcSt11char_traitsIcEED1Ev@GLIBCXX_3.4>
    23eb:	0f 1f 44 00 00       	nopl   0x0(%rax,%rax,1)

00000000000023f0 <fork@plt>:
    23f0:	f3 0f 1e fa          	endbr64 
    23f4:	f2 ff 25 0d 6a 00 00 	bnd jmpq *0x6a0d(%rip)        # 8e08 <fork@GLIBC_2.2.5>
    23fb:	0f 1f 44 00 00       	nopl   0x0(%rax,%rax,1)

0000000000002400 <_ZNSt7__cxx1112basic_stringIcSt11char_traitsIcESaIcEE13_S_copy_charsEPcS5_S5_@plt>:
    2400:	f3 0f 1e fa          	endbr64 
    2404:	f2 ff 25 05 6a 00 00 	bnd jmpq *0x6a05(%rip)        # 8e10 <_ZNSt7__cxx1112basic_stringIcSt11char_traitsIcESaIcEE13_S_copy_charsEPcS5_S5_@GLIBCXX_3.4.21>
    240b:	0f 1f 44 00 00       	nopl   0x0(%rax,%rax,1)

0000000000002410 <_ZSt17__throw_bad_allocv@plt>:
    2410:	f3 0f 1e fa          	endbr64 
    2414:	f2 ff 25 fd 69 00 00 	bnd jmpq *0x69fd(%rip)        # 8e18 <_ZSt17__throw_bad_allocv@GLIBCXX_3.4>
    241b:	0f 1f 44 00 00       	nopl   0x0(%rax,%rax,1)

0000000000002420 <__cxa_begin_catch@plt>:
    2420:	f3 0f 1e fa          	endbr64 
    2424:	f2 ff 25 f5 69 00 00 	bnd jmpq *0x69f5(%rip)        # 8e20 <__cxa_begin_catch@CXXABI_1.3>
    242b:	0f 1f 44 00 00       	nopl   0x0(%rax,%rax,1)

0000000000002430 <_ZNKSt7__cxx1112basic_stringIcSt11char_traitsIcESaIcEE5c_strEv@plt>:
    2430:	f3 0f 1e fa          	endbr64 
    2434:	f2 ff 25 ed 69 00 00 	bnd jmpq *0x69ed(%rip)        # 8e28 <_ZNKSt7__cxx1112basic_stringIcSt11char_traitsIcESaIcEE5c_strEv@GLIBCXX_3.4.21>
    243b:	0f 1f 44 00 00       	nopl   0x0(%rax,%rax,1)

0000000000002440 <_ZNKSt7__cxx1112basic_stringIcSt11char_traitsIcESaIcEE13find_first_ofEPKcm@plt>:
    2440:	f3 0f 1e fa          	endbr64 
    2444:	f2 ff 25 e5 69 00 00 	bnd jmpq *0x69e5(%rip)        # 8e30 <_ZNKSt7__cxx1112basic_stringIcSt11char_traitsIcESaIcEE13find_first_ofEPKcm@GLIBCXX_3.4.21>
    244b:	0f 1f 44 00 00       	nopl   0x0(%rax,%rax,1)

0000000000002450 <_ZSt20__throw_length_errorPKc@plt>:
    2450:	f3 0f 1e fa          	endbr64 
    2454:	f2 ff 25 dd 69 00 00 	bnd jmpq *0x69dd(%rip)        # 8e38 <_ZSt20__throw_length_errorPKc@GLIBCXX_3.4>
    245b:	0f 1f 44 00 00       	nopl   0x0(%rax,%rax,1)

0000000000002460 <_ZNSt7__cxx1112basic_stringIcSt11char_traitsIcESaIcEED1Ev@plt>:
    2460:	f3 0f 1e fa          	endbr64 
    2464:	f2 ff 25 d5 69 00 00 	bnd jmpq *0x69d5(%rip)        # 8e40 <_ZNSt7__cxx1112basic_stringIcSt11char_traitsIcESaIcEED1Ev@GLIBCXX_3.4.21>
    246b:	0f 1f 44 00 00       	nopl   0x0(%rax,%rax,1)

0000000000002470 <_ZNKSt7__cxx1112basic_stringIcSt11char_traitsIcESaIcEE13find_first_ofEcm@plt>:
    2470:	f3 0f 1e fa          	endbr64 
    2474:	f2 ff 25 cd 69 00 00 	bnd jmpq *0x69cd(%rip)        # 8e48 <_ZNKSt7__cxx1112basic_stringIcSt11char_traitsIcESaIcEE13find_first_ofEcm@GLIBCXX_3.4.21>
    247b:	0f 1f 44 00 00       	nopl   0x0(%rax,%rax,1)

0000000000002480 <_ZNSt7__cxx1112basic_stringIcSt11char_traitsIcESaIcEE13_M_set_lengthEm@plt>:
    2480:	f3 0f 1e fa          	endbr64 
    2484:	f2 ff 25 c5 69 00 00 	bnd jmpq *0x69c5(%rip)        # 8e50 <_ZNSt7__cxx1112basic_stringIcSt11char_traitsIcESaIcEE13_M_set_lengthEm@GLIBCXX_3.4.21>
    248b:	0f 1f 44 00 00       	nopl   0x0(%rax,%rax,1)

0000000000002490 <_ZNKSt7__cxx1112basic_stringIcSt11char_traitsIcESaIcEE4sizeEv@plt>:
    2490:	f3 0f 1e fa          	endbr64 
    2494:	f2 ff 25 bd 69 00 00 	bnd jmpq *0x69bd(%rip)        # 8e58 <_ZNKSt7__cxx1112basic_stringIcSt11char_traitsIcESaIcEE4sizeEv@GLIBCXX_3.4.21>
    249b:	0f 1f 44 00 00       	nopl   0x0(%rax,%rax,1)

00000000000024a0 <_ZSt19__throw_logic_errorPKc@plt>:
    24a0:	f3 0f 1e fa          	endbr64 
    24a4:	f2 ff 25 b5 69 00 00 	bnd jmpq *0x69b5(%rip)        # 8e60 <_ZSt19__throw_logic_errorPKc@GLIBCXX_3.4>
    24ab:	0f 1f 44 00 00       	nopl   0x0(%rax,%rax,1)

00000000000024b0 <_ZNSt7__cxx1112basic_stringIcSt11char_traitsIcESaIcEE13_M_local_dataEv@plt>:
    24b0:	f3 0f 1e fa          	endbr64 
    24b4:	f2 ff 25 ad 69 00 00 	bnd jmpq *0x69ad(%rip)        # 8e68 <_ZNSt7__cxx1112basic_stringIcSt11char_traitsIcESaIcEE13_M_local_dataEv@GLIBCXX_3.4.21>
    24bb:	0f 1f 44 00 00       	nopl   0x0(%rax,%rax,1)

00000000000024c0 <perror@plt>:
    24c0:	f3 0f 1e fa          	endbr64 
    24c4:	f2 ff 25 a5 69 00 00 	bnd jmpq *0x69a5(%rip)        # 8e70 <perror@GLIBC_2.2.5>
    24cb:	0f 1f 44 00 00       	nopl   0x0(%rax,%rax,1)

00000000000024d0 <_ZNSt7__cxx1112basic_stringIcSt11char_traitsIcESaIcEE7_M_dataEPc@plt>:
    24d0:	f3 0f 1e fa          	endbr64 
    24d4:	f2 ff 25 9d 69 00 00 	bnd jmpq *0x699d(%rip)        # 8e78 <_ZNSt7__cxx1112basic_stringIcSt11char_traitsIcESaIcEE7_M_dataEPc@GLIBCXX_3.4.21>
    24db:	0f 1f 44 00 00       	nopl   0x0(%rax,%rax,1)

00000000000024e0 <ptrace@plt>:
    24e0:	f3 0f 1e fa          	endbr64 
    24e4:	f2 ff 25 95 69 00 00 	bnd jmpq *0x6995(%rip)        # 8e80 <ptrace@GLIBC_2.2.5>
    24eb:	0f 1f 44 00 00       	nopl   0x0(%rax,%rax,1)

00000000000024f0 <system@plt>:
    24f0:	f3 0f 1e fa          	endbr64 
    24f4:	f2 ff 25 8d 69 00 00 	bnd jmpq *0x698d(%rip)        # 8e88 <system@GLIBC_2.2.5>
    24fb:	0f 1f 44 00 00       	nopl   0x0(%rax,%rax,1)

0000000000002500 <__cxa_atexit@plt>:
    2500:	f3 0f 1e fa          	endbr64 
    2504:	f2 ff 25 85 69 00 00 	bnd jmpq *0x6985(%rip)        # 8e90 <__cxa_atexit@GLIBC_2.2.5>
    250b:	0f 1f 44 00 00       	nopl   0x0(%rax,%rax,1)

0000000000002510 <_ZStlsIcSt11char_traitsIcESaIcEERSt13basic_ostreamIT_T0_ES7_RKNSt7__cxx1112basic_stringIS4_S5_T1_EE@plt>:
    2510:	f3 0f 1e fa          	endbr64 
    2514:	f2 ff 25 7d 69 00 00 	bnd jmpq *0x697d(%rip)        # 8e98 <_ZStlsIcSt11char_traitsIcESaIcEERSt13basic_ostreamIT_T0_ES7_RKNSt7__cxx1112basic_stringIS4_S5_T1_EE@GLIBCXX_3.4.21>
    251b:	0f 1f 44 00 00       	nopl   0x0(%rax,%rax,1)

0000000000002520 <strcpy@plt>:
    2520:	f3 0f 1e fa          	endbr64 
    2524:	f2 ff 25 75 69 00 00 	bnd jmpq *0x6975(%rip)        # 8ea0 <strcpy@GLIBC_2.2.5>
    252b:	0f 1f 44 00 00       	nopl   0x0(%rax,%rax,1)

0000000000002530 <_ZdlPv@plt>:
    2530:	f3 0f 1e fa          	endbr64 
    2534:	f2 ff 25 6d 69 00 00 	bnd jmpq *0x696d(%rip)        # 8ea8 <_ZdlPv@GLIBCXX_3.4>
    253b:	0f 1f 44 00 00       	nopl   0x0(%rax,%rax,1)

0000000000002540 <_ZNKSt7__cxx1112basic_stringIcSt11char_traitsIcESaIcEE12find_last_ofEPKcm@plt>:
    2540:	f3 0f 1e fa          	endbr64 
    2544:	f2 ff 25 65 69 00 00 	bnd jmpq *0x6965(%rip)        # 8eb0 <_ZNKSt7__cxx1112basic_stringIcSt11char_traitsIcESaIcEE12find_last_ofEPKcm@GLIBCXX_3.4.21>
    254b:	0f 1f 44 00 00       	nopl   0x0(%rax,%rax,1)

0000000000002550 <_ZStlsISt11char_traitsIcEERSt13basic_ostreamIcT_ES5_PKc@plt>:
    2550:	f3 0f 1e fa          	endbr64 
    2554:	f2 ff 25 5d 69 00 00 	bnd jmpq *0x695d(%rip)        # 8eb8 <_ZStlsISt11char_traitsIcEERSt13basic_ostreamIcT_ES5_PKc@GLIBCXX_3.4>
    255b:	0f 1f 44 00 00       	nopl   0x0(%rax,%rax,1)

0000000000002560 <_Znwm@plt>:
    2560:	f3 0f 1e fa          	endbr64 
    2564:	f2 ff 25 55 69 00 00 	bnd jmpq *0x6955(%rip)        # 8ec0 <_Znwm@GLIBCXX_3.4>
    256b:	0f 1f 44 00 00       	nopl   0x0(%rax,%rax,1)

0000000000002570 <_ZNKSt7__cxx1112basic_stringIcSt11char_traitsIcESaIcEE6substrEmm@plt>:
    2570:	f3 0f 1e fa          	endbr64 
    2574:	f2 ff 25 4d 69 00 00 	bnd jmpq *0x694d(%rip)        # 8ec8 <_ZNKSt7__cxx1112basic_stringIcSt11char_traitsIcESaIcEE6substrEmm@GLIBCXX_3.4.21>
    257b:	0f 1f 44 00 00       	nopl   0x0(%rax,%rax,1)

0000000000002580 <_ZNSolsEPFRSoS_E@plt>:
    2580:	f3 0f 1e fa          	endbr64 
    2584:	f2 ff 25 45 69 00 00 	bnd jmpq *0x6945(%rip)        # 8ed0 <_ZNSolsEPFRSoS_E@GLIBCXX_3.4>
    258b:	0f 1f 44 00 00       	nopl   0x0(%rax,%rax,1)

0000000000002590 <_ZNSt7__cxx1112basic_stringIcSt11char_traitsIcESaIcEE12_Alloc_hiderC1EPcRKS3_@plt>:
    2590:	f3 0f 1e fa          	endbr64 
    2594:	f2 ff 25 3d 69 00 00 	bnd jmpq *0x693d(%rip)        # 8ed8 <_ZNSt7__cxx1112basic_stringIcSt11char_traitsIcESaIcEE12_Alloc_hiderC1EPcRKS3_@GLIBCXX_3.4.21>
    259b:	0f 1f 44 00 00       	nopl   0x0(%rax,%rax,1)

00000000000025a0 <_ZNSaIcED1Ev@plt>:
    25a0:	f3 0f 1e fa          	endbr64 
    25a4:	f2 ff 25 35 69 00 00 	bnd jmpq *0x6935(%rip)        # 8ee0 <_ZNSaIcED1Ev@GLIBCXX_3.4>
    25ab:	0f 1f 44 00 00       	nopl   0x0(%rax,%rax,1)

00000000000025b0 <_ZNKSt7__cxx1112basic_stringIcSt11char_traitsIcESaIcEE7_M_dataEv@plt>:
    25b0:	f3 0f 1e fa          	endbr64 
    25b4:	f2 ff 25 2d 69 00 00 	bnd jmpq *0x692d(%rip)        # 8ee8 <_ZNKSt7__cxx1112basic_stringIcSt11char_traitsIcESaIcEE7_M_dataEv@GLIBCXX_3.4.21>
    25bb:	0f 1f 44 00 00       	nopl   0x0(%rax,%rax,1)

00000000000025c0 <__stack_chk_fail@plt>:
    25c0:	f3 0f 1e fa          	endbr64 
    25c4:	f2 ff 25 25 69 00 00 	bnd jmpq *0x6925(%rip)        # 8ef0 <__stack_chk_fail@GLIBC_2.4>
    25cb:	0f 1f 44 00 00       	nopl   0x0(%rax,%rax,1)

00000000000025d0 <fopen@plt>:
    25d0:	f3 0f 1e fa          	endbr64 
    25d4:	f2 ff 25 1d 69 00 00 	bnd jmpq *0x691d(%rip)        # 8ef8 <fopen@GLIBC_2.2.5>
    25db:	0f 1f 44 00 00       	nopl   0x0(%rax,%rax,1)

00000000000025e0 <_ZNSt7__cxx1112basic_stringIcSt11char_traitsIcESaIcEEaSEOS4_@plt>:
    25e0:	f3 0f 1e fa          	endbr64 
    25e4:	f2 ff 25 15 69 00 00 	bnd jmpq *0x6915(%rip)        # 8f00 <_ZNSt7__cxx1112basic_stringIcSt11char_traitsIcESaIcEEaSEOS4_@GLIBCXX_3.4.21>
    25eb:	0f 1f 44 00 00       	nopl   0x0(%rax,%rax,1)

00000000000025f0 <_ZNSt7__cxx1112basic_stringIcSt11char_traitsIcESaIcEE10_M_disposeEv@plt>:
    25f0:	f3 0f 1e fa          	endbr64 
    25f4:	f2 ff 25 0d 69 00 00 	bnd jmpq *0x690d(%rip)        # 8f08 <_ZNSt7__cxx1112basic_stringIcSt11char_traitsIcESaIcEE10_M_disposeEv@GLIBCXX_3.4.21>
    25fb:	0f 1f 44 00 00       	nopl   0x0(%rax,%rax,1)

0000000000002600 <wait@plt>:
    2600:	f3 0f 1e fa          	endbr64 
    2604:	f2 ff 25 05 69 00 00 	bnd jmpq *0x6905(%rip)        # 8f10 <wait@GLIBC_2.2.5>
    260b:	0f 1f 44 00 00       	nopl   0x0(%rax,%rax,1)

0000000000002610 <execl@plt>:
    2610:	f3 0f 1e fa          	endbr64 
    2614:	f2 ff 25 fd 68 00 00 	bnd jmpq *0x68fd(%rip)        # 8f18 <execl@GLIBC_2.2.5>
    261b:	0f 1f 44 00 00       	nopl   0x0(%rax,%rax,1)

0000000000002620 <getline@plt>:
    2620:	f3 0f 1e fa          	endbr64 
    2624:	f2 ff 25 f5 68 00 00 	bnd jmpq *0x68f5(%rip)        # 8f20 <getline@GLIBC_2.2.5>
    262b:	0f 1f 44 00 00       	nopl   0x0(%rax,%rax,1)

0000000000002630 <_ZNSt7__cxx1112basic_stringIcSt11char_traitsIcESaIcEEC1EPKcRKS3_@plt>:
    2630:	f3 0f 1e fa          	endbr64 
    2634:	f2 ff 25 ed 68 00 00 	bnd jmpq *0x68ed(%rip)        # 8f28 <_ZNSt7__cxx1112basic_stringIcSt11char_traitsIcESaIcEEC1EPKcRKS3_@GLIBCXX_3.4.21>
    263b:	0f 1f 44 00 00       	nopl   0x0(%rax,%rax,1)

0000000000002640 <_ZNSt7__cxx1112basic_stringIcSt11char_traitsIcESaIcEEC1Ev@plt>:
    2640:	f3 0f 1e fa          	endbr64 
    2644:	f2 ff 25 e5 68 00 00 	bnd jmpq *0x68e5(%rip)        # 8f30 <_ZNSt7__cxx1112basic_stringIcSt11char_traitsIcESaIcEEC1Ev@GLIBCXX_3.4.21>
    264b:	0f 1f 44 00 00       	nopl   0x0(%rax,%rax,1)

0000000000002650 <strcmp@plt>:
    2650:	f3 0f 1e fa          	endbr64 
    2654:	f2 ff 25 dd 68 00 00 	bnd jmpq *0x68dd(%rip)        # 8f38 <strcmp@GLIBC_2.2.5>
    265b:	0f 1f 44 00 00       	nopl   0x0(%rax,%rax,1)

0000000000002660 <__cxa_rethrow@plt>:
    2660:	f3 0f 1e fa          	endbr64 
    2664:	f2 ff 25 d5 68 00 00 	bnd jmpq *0x68d5(%rip)        # 8f40 <__cxa_rethrow@CXXABI_1.3>
    266b:	0f 1f 44 00 00       	nopl   0x0(%rax,%rax,1)

0000000000002670 <chdir@plt>:
    2670:	f3 0f 1e fa          	endbr64 
    2674:	f2 ff 25 cd 68 00 00 	bnd jmpq *0x68cd(%rip)        # 8f48 <chdir@GLIBC_2.2.5>
    267b:	0f 1f 44 00 00       	nopl   0x0(%rax,%rax,1)

0000000000002680 <_ZNSt8ios_base4InitC1Ev@plt>:
    2680:	f3 0f 1e fa          	endbr64 
    2684:	f2 ff 25 c5 68 00 00 	bnd jmpq *0x68c5(%rip)        # 8f50 <_ZNSt8ios_base4InitC1Ev@GLIBCXX_3.4>
    268b:	0f 1f 44 00 00       	nopl   0x0(%rax,%rax,1)

0000000000002690 <puts@plt>:
    2690:	f3 0f 1e fa          	endbr64 
    2694:	f2 ff 25 bd 68 00 00 	bnd jmpq *0x68bd(%rip)        # 8f58 <puts@GLIBC_2.2.5>
    269b:	0f 1f 44 00 00       	nopl   0x0(%rax,%rax,1)

00000000000026a0 <memmove@plt>:
    26a0:	f3 0f 1e fa          	endbr64 
    26a4:	f2 ff 25 b5 68 00 00 	bnd jmpq *0x68b5(%rip)        # 8f60 <memmove@GLIBC_2.2.5>
    26ab:	0f 1f 44 00 00       	nopl   0x0(%rax,%rax,1)

00000000000026b0 <__cxa_end_catch@plt>:
    26b0:	f3 0f 1e fa          	endbr64 
    26b4:	f2 ff 25 ad 68 00 00 	bnd jmpq *0x68ad(%rip)        # 8f68 <__cxa_end_catch@CXXABI_1.3>
    26bb:	0f 1f 44 00 00       	nopl   0x0(%rax,%rax,1)

00000000000026c0 <_Unwind_Resume@plt>:
    26c0:	f3 0f 1e fa          	endbr64 
    26c4:	f2 ff 25 a5 68 00 00 	bnd jmpq *0x68a5(%rip)        # 8f70 <_Unwind_Resume@GCC_3.0>
    26cb:	0f 1f 44 00 00       	nopl   0x0(%rax,%rax,1)

00000000000026d0 <_ZNSaIcEC1Ev@plt>:
    26d0:	f3 0f 1e fa          	endbr64 
    26d4:	f2 ff 25 9d 68 00 00 	bnd jmpq *0x689d(%rip)        # 8f78 <_ZNSaIcEC1Ev@GLIBCXX_3.4>
    26db:	0f 1f 44 00 00       	nopl   0x0(%rax,%rax,1)

00000000000026e0 <_ZNSt7__cxx1112basic_stringIcSt11char_traitsIcESaIcEE9_M_createERmm@plt>:
    26e0:	f3 0f 1e fa          	endbr64 
    26e4:	f2 ff 25 95 68 00 00 	bnd jmpq *0x6895(%rip)        # 8f80 <_ZNSt7__cxx1112basic_stringIcSt11char_traitsIcESaIcEE9_M_createERmm@GLIBCXX_3.4.21>
    26eb:	0f 1f 44 00 00       	nopl   0x0(%rax,%rax,1)

00000000000026f0 <_ZNSt14basic_ifstreamIcSt11char_traitsIcEEC1EPKcSt13_Ios_Openmode@plt>:
    26f0:	f3 0f 1e fa          	endbr64 
    26f4:	f2 ff 25 8d 68 00 00 	bnd jmpq *0x688d(%rip)        # 8f88 <_ZNSt14basic_ifstreamIcSt11char_traitsIcEEC1EPKcSt13_Ios_Openmode@GLIBCXX_3.4>
    26fb:	0f 1f 44 00 00       	nopl   0x0(%rax,%rax,1)

0000000000002700 <_ZNSt7__cxx1112basic_stringIcSt11char_traitsIcESaIcEE6appendEPKc@plt>:
    2700:	f3 0f 1e fa          	endbr64 
    2704:	f2 ff 25 85 68 00 00 	bnd jmpq *0x6885(%rip)        # 8f90 <_ZNSt7__cxx1112basic_stringIcSt11char_traitsIcESaIcEE6appendEPKc@GLIBCXX_3.4.21>
    270b:	0f 1f 44 00 00       	nopl   0x0(%rax,%rax,1)

0000000000002710 <fwrite@plt>:
    2710:	f3 0f 1e fa          	endbr64 
    2714:	f2 ff 25 7d 68 00 00 	bnd jmpq *0x687d(%rip)        # 8f98 <fwrite@GLIBC_2.2.5>
    271b:	0f 1f 44 00 00       	nopl   0x0(%rax,%rax,1)

0000000000002720 <_ZNSt7__cxx1112basic_stringIcSt11char_traitsIcESaIcEE6appendERKS4_@plt>:
    2720:	f3 0f 1e fa          	endbr64 
    2724:	f2 ff 25 75 68 00 00 	bnd jmpq *0x6875(%rip)        # 8fa0 <_ZNSt7__cxx1112basic_stringIcSt11char_traitsIcESaIcEE6appendERKS4_@GLIBCXX_3.4.21>
    272b:	0f 1f 44 00 00       	nopl   0x0(%rax,%rax,1)

0000000000002730 <_ZNSt7__cxx1112basic_stringIcSt11char_traitsIcESaIcEE11_M_capacityEm@plt>:
    2730:	f3 0f 1e fa          	endbr64 
    2734:	f2 ff 25 6d 68 00 00 	bnd jmpq *0x686d(%rip)        # 8fa8 <_ZNSt7__cxx1112basic_stringIcSt11char_traitsIcESaIcEE11_M_capacityEm@GLIBCXX_3.4.21>
    273b:	0f 1f 44 00 00       	nopl   0x0(%rax,%rax,1)

Disassembly of section .text:

0000000000002740 <_start>:
    2740:	f3 0f 1e fa          	endbr64 
    2744:	31 ed                	xor    %ebp,%ebp
    2746:	49 89 d1             	mov    %rdx,%r9
    2749:	5e                   	pop    %rsi
    274a:	48 89 e2             	mov    %rsp,%rdx
    274d:	48 83 e4 f0          	and    $0xfffffffffffffff0,%rsp
    2751:	50                   	push   %rax
    2752:	54                   	push   %rsp
    2753:	4c 8d 05 36 2d 00 00 	lea    0x2d36(%rip),%r8        # 5490 <__libc_csu_fini>
    275a:	48 8d 0d bf 2c 00 00 	lea    0x2cbf(%rip),%rcx        # 5420 <__libc_csu_init>
    2761:	48 8d 3d c1 00 00 00 	lea    0xc1(%rip),%rdi        # 2829 <main>
    2768:	ff 15 72 68 00 00    	callq  *0x6872(%rip)        # 8fe0 <__libc_start_main@GLIBC_2.2.5>
    276e:	f4                   	hlt    
    276f:	90                   	nop

0000000000002770 <deregister_tm_clones>:
    2770:	48 8d 3d a1 68 00 00 	lea    0x68a1(%rip),%rdi        # 9018 <__TMC_END__>
    2777:	48 8d 05 9a 68 00 00 	lea    0x689a(%rip),%rax        # 9018 <__TMC_END__>
    277e:	48 39 f8             	cmp    %rdi,%rax
    2781:	74 15                	je     2798 <deregister_tm_clones+0x28>
    2783:	48 8b 05 4e 68 00 00 	mov    0x684e(%rip),%rax        # 8fd8 <_ITM_deregisterTMCloneTable>
    278a:	48 85 c0             	test   %rax,%rax
    278d:	74 09                	je     2798 <deregister_tm_clones+0x28>
    278f:	ff e0                	jmpq   *%rax
    2791:	0f 1f 80 00 00 00 00 	nopl   0x0(%rax)
    2798:	c3                   	retq   
    2799:	0f 1f 80 00 00 00 00 	nopl   0x0(%rax)

00000000000027a0 <register_tm_clones>:
    27a0:	48 8d 3d 71 68 00 00 	lea    0x6871(%rip),%rdi        # 9018 <__TMC_END__>
    27a7:	48 8d 35 6a 68 00 00 	lea    0x686a(%rip),%rsi        # 9018 <__TMC_END__>
    27ae:	48 29 fe             	sub    %rdi,%rsi
    27b1:	48 89 f0             	mov    %rsi,%rax
    27b4:	48 c1 ee 3f          	shr    $0x3f,%rsi
    27b8:	48 c1 f8 03          	sar    $0x3,%rax
    27bc:	48 01 c6             	add    %rax,%rsi
    27bf:	48 d1 fe             	sar    %rsi
    27c2:	74 14                	je     27d8 <register_tm_clones+0x38>
    27c4:	48 8b 05 25 68 00 00 	mov    0x6825(%rip),%rax        # 8ff0 <_ITM_registerTMCloneTable>
    27cb:	48 85 c0             	test   %rax,%rax
    27ce:	74 08                	je     27d8 <register_tm_clones+0x38>
    27d0:	ff e0                	jmpq   *%rax
    27d2:	66 0f 1f 44 00 00    	nopw   0x0(%rax,%rax,1)
    27d8:	c3                   	retq   
    27d9:	0f 1f 80 00 00 00 00 	nopl   0x0(%rax)

00000000000027e0 <__do_global_dtors_aux>:
    27e0:	f3 0f 1e fa          	endbr64 
    27e4:	80 3d 2d 68 00 00 00 	cmpb   $0x0,0x682d(%rip)        # 9018 <__TMC_END__>
    27eb:	75 2b                	jne    2818 <__do_global_dtors_aux+0x38>
    27ed:	55                   	push   %rbp
    27ee:	48 83 3d c2 67 00 00 	cmpq   $0x0,0x67c2(%rip)        # 8fb8 <__cxa_finalize@GLIBC_2.2.5>
    27f5:	00 
    27f6:	48 89 e5             	mov    %rsp,%rbp
    27f9:	74 0c                	je     2807 <__do_global_dtors_aux+0x27>
    27fb:	48 8b 3d 06 68 00 00 	mov    0x6806(%rip),%rdi        # 9008 <__dso_handle>
    2802:	e8 a9 fb ff ff       	callq  23b0 <__cxa_finalize@plt>
    2807:	e8 64 ff ff ff       	callq  2770 <deregister_tm_clones>
    280c:	c6 05 05 68 00 00 01 	movb   $0x1,0x6805(%rip)        # 9018 <__TMC_END__>
    2813:	5d                   	pop    %rbp
    2814:	c3                   	retq   
    2815:	0f 1f 00             	nopl   (%rax)
    2818:	c3                   	retq   
    2819:	0f 1f 80 00 00 00 00 	nopl   0x0(%rax)

0000000000002820 <frame_dummy>:
    2820:	f3 0f 1e fa          	endbr64 
    2824:	e9 77 ff ff ff       	jmpq   27a0 <register_tm_clones>

0000000000002829 <main>:
    2829:	f3 0f 1e fa          	endbr64 
    282d:	55                   	push   %rbp
    282e:	48 89 e5             	mov    %rsp,%rbp
    2831:	48 83 ec 10          	sub    $0x10,%rsp
    2835:	64 48 8b 04 25 28 00 	mov    %fs:0x28,%rax
    283c:	00 00 
    283e:	48 89 45 f8          	mov    %rax,-0x8(%rbp)
    2842:	31 c0                	xor    %eax,%eax
    2844:	48 8d 3d d6 39 00 00 	lea    0x39d6(%rip),%rdi        # 6221 <_ZNSt8__detailL19_S_invalid_state_idE+0x171>
    284b:	e8 40 fe ff ff       	callq  2690 <puts@plt>
    2850:	48 8d 45 f0          	lea    -0x10(%rbp),%rax
    2854:	48 89 c7             	mov    %rax,%rdi
    2857:	e8 aa 0e 00 00       	callq  3706 <_ZN10ControllerC1Ev>
    285c:	48 8d 45 f0          	lea    -0x10(%rbp),%rax
    2860:	48 89 c7             	mov    %rax,%rdi
    2863:	e8 bc 0e 00 00       	callq  3724 <_ZN10Controller5startEv>
    2868:	48 8d 3d b9 39 00 00 	lea    0x39b9(%rip),%rdi        # 6228 <_ZNSt8__detailL19_S_invalid_state_idE+0x178>
    286f:	e8 1c fe ff ff       	callq  2690 <puts@plt>
    2874:	b8 00 00 00 00       	mov    $0x0,%eax
    2879:	48 8b 55 f8          	mov    -0x8(%rbp),%rdx
    287d:	64 48 33 14 25 28 00 	xor    %fs:0x28,%rdx
    2884:	00 00 
    2886:	74 05                	je     288d <main+0x64>
    2888:	e8 33 fd ff ff       	callq  25c0 <__stack_chk_fail@plt>
    288d:	c9                   	leaveq 
    288e:	c3                   	retq   

000000000000288f <_Z41__static_initialization_and_destruction_0ii>:
    288f:	f3 0f 1e fa          	endbr64 
    2893:	55                   	push   %rbp
    2894:	48 89 e5             	mov    %rsp,%rbp
    2897:	48 83 ec 10          	sub    $0x10,%rsp
    289b:	89 7d fc             	mov    %edi,-0x4(%rbp)
    289e:	89 75 f8             	mov    %esi,-0x8(%rbp)
    28a1:	83 7d fc 01          	cmpl   $0x1,-0x4(%rbp)
    28a5:	75 32                	jne    28d9 <_Z41__static_initialization_and_destruction_0ii+0x4a>
    28a7:	81 7d f8 ff ff 00 00 	cmpl   $0xffff,-0x8(%rbp)
    28ae:	75 29                	jne    28d9 <_Z41__static_initialization_and_destruction_0ii+0x4a>
    28b0:	48 8d 3d 62 67 00 00 	lea    0x6762(%rip),%rdi        # 9019 <_ZStL8__ioinit>
    28b7:	e8 c4 fd ff ff       	callq  2680 <_ZNSt8ios_base4InitC1Ev@plt>
    28bc:	48 8d 15 45 67 00 00 	lea    0x6745(%rip),%rdx        # 9008 <__dso_handle>
    28c3:	48 8d 35 4f 67 00 00 	lea    0x674f(%rip),%rsi        # 9019 <_ZStL8__ioinit>
    28ca:	48 8b 05 27 67 00 00 	mov    0x6727(%rip),%rax        # 8ff8 <_ZNSt8ios_base4InitD1Ev@GLIBCXX_3.4>
    28d1:	48 89 c7             	mov    %rax,%rdi
    28d4:	e8 27 fc ff ff       	callq  2500 <__cxa_atexit@plt>
    28d9:	90                   	nop
    28da:	c9                   	leaveq 
    28db:	c3                   	retq   

00000000000028dc <_GLOBAL__sub_I_CopiaProva.cpp>:
    28dc:	f3 0f 1e fa          	endbr64 
    28e0:	55                   	push   %rbp
    28e1:	48 89 e5             	mov    %rsp,%rbp
    28e4:	be ff ff 00 00       	mov    $0xffff,%esi
    28e9:	bf 01 00 00 00       	mov    $0x1,%edi
    28ee:	e8 9c ff ff ff       	callq  288f <_Z41__static_initialization_and_destruction_0ii>
    28f3:	5d                   	pop    %rbp
    28f4:	c3                   	retq   

00000000000028f5 <_ZnwmPv>:
    28f5:	f3 0f 1e fa          	endbr64 
    28f9:	55                   	push   %rbp
    28fa:	48 89 e5             	mov    %rsp,%rbp
    28fd:	48 89 7d f8          	mov    %rdi,-0x8(%rbp)
    2901:	48 89 75 f0          	mov    %rsi,-0x10(%rbp)
    2905:	48 8b 45 f0          	mov    -0x10(%rbp),%rax
    2909:	5d                   	pop    %rbp
    290a:	c3                   	retq   

000000000000290b <_ZNSt7__cxx119to_stringEi>:
    290b:	f3 0f 1e fa          	endbr64 
    290f:	55                   	push   %rbp
    2910:	48 89 e5             	mov    %rsp,%rbp
    2913:	48 83 ec 20          	sub    $0x20,%rsp
    2917:	48 89 7d e8          	mov    %rdi,-0x18(%rbp)
    291b:	89 75 e4             	mov    %esi,-0x1c(%rbp)
    291e:	64 48 8b 04 25 28 00 	mov    %fs:0x28,%rax
    2925:	00 00 
    2927:	48 89 45 f8          	mov    %rax,-0x8(%rbp)
    292b:	31 c0                	xor    %eax,%eax
    292d:	48 8b 45 e8          	mov    -0x18(%rbp),%rax
    2931:	8b 55 e4             	mov    -0x1c(%rbp),%edx
    2934:	41 89 d0             	mov    %edx,%r8d
    2937:	48 8d 0d cb 36 00 00 	lea    0x36cb(%rip),%rcx        # 6009 <_ZStL19piecewise_construct+0x1>
    293e:	ba 10 00 00 00       	mov    $0x10,%edx
    2943:	48 8b 35 7e 66 00 00 	mov    0x667e(%rip),%rsi        # 8fc8 <vsnprintf@GLIBC_2.2.5>
    294a:	48 89 c7             	mov    %rax,%rdi
    294d:	b8 00 00 00 00       	mov    $0x0,%eax
    2952:	e8 3e 0e 00 00       	callq  3795 <_ZN9__gnu_cxx12__to_xstringINSt7__cxx1112basic_stringIcSt11char_traitsIcESaIcEEEcEET_PFiPT0_mPKS8_P13__va_list_tagEmSB_z>
    2957:	48 8b 45 f8          	mov    -0x8(%rbp),%rax
    295b:	64 48 33 04 25 28 00 	xor    %fs:0x28,%rax
    2962:	00 00 
    2964:	74 05                	je     296b <_ZNSt7__cxx119to_stringEi+0x60>
    2966:	e8 55 fc ff ff       	callq  25c0 <__stack_chk_fail@plt>
    296b:	48 8b 45 e8          	mov    -0x18(%rbp),%rax
    296f:	c9                   	leaveq 
    2970:	c3                   	retq   

0000000000002971 <_ZSt3minImERKT_S2_S2_>:
    2971:	f3 0f 1e fa          	endbr64 
    2975:	55                   	push   %rbp
    2976:	48 89 e5             	mov    %rsp,%rbp
    2979:	48 89 7d f8          	mov    %rdi,-0x8(%rbp)
    297d:	48 89 75 f0          	mov    %rsi,-0x10(%rbp)
    2981:	48 8b 45 f0          	mov    -0x10(%rbp),%rax
    2985:	48 8b 10             	mov    (%rax),%rdx
    2988:	48 8b 45 f8          	mov    -0x8(%rbp),%rax
    298c:	48 8b 00             	mov    (%rax),%rax
    298f:	48 39 c2             	cmp    %rax,%rdx
    2992:	73 06                	jae    299a <_ZSt3minImERKT_S2_S2_+0x29>
    2994:	48 8b 45 f0          	mov    -0x10(%rbp),%rax
    2998:	eb 04                	jmp    299e <_ZSt3minImERKT_S2_S2_+0x2d>
    299a:	48 8b 45 f8          	mov    -0x8(%rbp),%rax
    299e:	5d                   	pop    %rbp
    299f:	c3                   	retq   

00000000000029a0 <_ZN8DebuggerC1Ev>:
    29a0:	f3 0f 1e fa          	endbr64 
    29a4:	55                   	push   %rbp
    29a5:	48 89 e5             	mov    %rsp,%rbp
    29a8:	48 89 7d f8          	mov    %rdi,-0x8(%rbp)
    29ac:	48 8b 45 f8          	mov    -0x8(%rbp),%rax
    29b0:	c7 00 00 00 00 00    	movl   $0x0,(%rax)
    29b6:	48 8b 45 f8          	mov    -0x8(%rbp),%rax
    29ba:	48 c7 40 08 00 00 00 	movq   $0x0,0x8(%rax)
    29c1:	00 
    29c2:	90                   	nop
    29c3:	5d                   	pop    %rbp
    29c4:	c3                   	retq   
    29c5:	90                   	nop

00000000000029c6 <_ZNSt12_Vector_baseIN8Debugger9addrRangeESaIS1_EE12_Vector_implD1Ev>:
    29c6:	f3 0f 1e fa          	endbr64 
    29ca:	55                   	push   %rbp
    29cb:	48 89 e5             	mov    %rsp,%rbp
    29ce:	48 83 ec 10          	sub    $0x10,%rsp
    29d2:	48 89 7d f8          	mov    %rdi,-0x8(%rbp)
    29d6:	48 8b 45 f8          	mov    -0x8(%rbp),%rax
    29da:	48 89 c7             	mov    %rax,%rdi
    29dd:	e8 46 10 00 00       	callq  3a28 <_ZNSaIN8Debugger9addrRangeEED1Ev>
    29e2:	90                   	nop
    29e3:	c9                   	leaveq 
    29e4:	c3                   	retq   
    29e5:	90                   	nop

00000000000029e6 <_ZN8Debugger5startEv>:
    29e6:	f3 0f 1e fa          	endbr64 
    29ea:	55                   	push   %rbp
    29eb:	48 89 e5             	mov    %rsp,%rbp
    29ee:	53                   	push   %rbx
    29ef:	48 83 ec 68          	sub    $0x68,%rsp
    29f3:	48 89 7d 98          	mov    %rdi,-0x68(%rbp)
    29f7:	64 48 8b 04 25 28 00 	mov    %fs:0x28,%rax
    29fe:	00 00 
    2a00:	48 89 45 e8          	mov    %rax,-0x18(%rbp)
    2a04:	31 c0                	xor    %eax,%eax
    2a06:	48 8b 05 a3 65 00 00 	mov    0x65a3(%rip),%rax        # 8fb0 <stdout@GLIBC_2.2.5>
    2a0d:	48 8b 00             	mov    (%rax),%rax
    2a10:	48 89 c1             	mov    %rax,%rcx
    2a13:	ba 10 00 00 00       	mov    $0x10,%edx
    2a18:	be 01 00 00 00       	mov    $0x1,%esi
    2a1d:	48 8d 3d 94 36 00 00 	lea    0x3694(%rip),%rdi        # 60b8 <_ZNSt8__detailL19_S_invalid_state_idE+0x8>
    2a24:	e8 e7 fc ff ff       	callq  2710 <fwrite@plt>
    2a29:	c7 45 ac 00 00 00 00 	movl   $0x0,-0x54(%rbp)
    2a30:	e8 bb f9 ff ff       	callq  23f0 <fork@plt>
    2a35:	89 45 ac             	mov    %eax,-0x54(%rbp)
    2a38:	83 7d ac 00          	cmpl   $0x0,-0x54(%rbp)
    2a3c:	75 4c                	jne    2a8a <_ZN8Debugger5startEv+0xa4>
    2a3e:	48 8d 3d 84 36 00 00 	lea    0x3684(%rip),%rdi        # 60c9 <_ZNSt8__detailL19_S_invalid_state_idE+0x19>
    2a45:	e8 46 fc ff ff       	callq  2690 <puts@plt>
    2a4a:	b9 00 00 00 00       	mov    $0x0,%ecx
    2a4f:	ba 00 00 00 00       	mov    $0x0,%edx
    2a54:	be 00 00 00 00       	mov    $0x0,%esi
    2a59:	bf 00 00 00 00       	mov    $0x0,%edi
    2a5e:	b8 00 00 00 00       	mov    $0x0,%eax
    2a63:	e8 78 fa ff ff       	callq  24e0 <ptrace@plt>
    2a68:	ba 00 00 00 00       	mov    $0x0,%edx
    2a6d:	48 8d 35 5c 36 00 00 	lea    0x365c(%rip),%rsi        # 60d0 <_ZNSt8__detailL19_S_invalid_state_idE+0x20>
    2a74:	48 8d 3d 55 36 00 00 	lea    0x3655(%rip),%rdi        # 60d0 <_ZNSt8__detailL19_S_invalid_state_idE+0x20>
    2a7b:	b8 00 00 00 00       	mov    $0x0,%eax
    2a80:	e8 8b fb ff ff       	callq  2610 <execl@plt>
    2a85:	e9 1a 01 00 00       	jmpq   2ba4 <_ZN8Debugger5startEv+0x1be>
    2a8a:	48 8d 3d 48 36 00 00 	lea    0x3648(%rip),%rdi        # 60d9 <_ZNSt8__detailL19_S_invalid_state_idE+0x29>
    2a91:	e8 fa fb ff ff       	callq  2690 <puts@plt>
    2a96:	48 8d 45 a4          	lea    -0x5c(%rbp),%rax
    2a9a:	48 89 c7             	mov    %rax,%rdi
    2a9d:	e8 5e fb ff ff       	callq  2600 <wait@plt>
    2aa2:	48 8d 45 b0          	lea    -0x50(%rbp),%rax
    2aa6:	8b 55 ac             	mov    -0x54(%rbp),%edx
    2aa9:	48 8b 4d 98          	mov    -0x68(%rbp),%rcx
    2aad:	48 89 ce             	mov    %rcx,%rsi
    2ab0:	48 89 c7             	mov    %rax,%rdi
    2ab3:	e8 48 01 00 00       	callq  2c00 <_ZN8Debugger9ReadAddrsEi>
    2ab8:	48 8d 55 b0          	lea    -0x50(%rbp),%rdx
    2abc:	48 8d 45 d0          	lea    -0x30(%rbp),%rax
    2ac0:	48 89 d6             	mov    %rdx,%rsi
    2ac3:	48 89 c7             	mov    %rax,%rdi
    2ac6:	e8 df 0f 00 00       	callq  3aaa <_ZNSt6vectorIN8Debugger9addrRangeESaIS1_EEC1ERKS3_>
    2acb:	48 8d 55 d0          	lea    -0x30(%rbp),%rdx
    2acf:	48 8b 45 98          	mov    -0x68(%rbp),%rax
    2ad3:	48 89 d6             	mov    %rdx,%rsi
    2ad6:	48 89 c7             	mov    %rax,%rdi
    2ad9:	e8 e0 09 00 00       	callq  34be <_ZN8Debugger6injectESt6vectorINS_9addrRangeESaIS1_EE>
    2ade:	48 8d 45 d0          	lea    -0x30(%rbp),%rax
    2ae2:	48 89 c7             	mov    %rax,%rdi
    2ae5:	e8 f6 0e 00 00       	callq  39e0 <_ZNSt6vectorIN8Debugger9addrRangeESaIS1_EED1Ev>
    2aea:	c7 45 a8 00 00 00 00 	movl   $0x0,-0x58(%rbp)
    2af1:	83 45 a8 01          	addl   $0x1,-0x58(%rbp)
    2af5:	8b 45 ac             	mov    -0x54(%rbp),%eax
    2af8:	b9 00 00 00 00       	mov    $0x0,%ecx
    2afd:	ba 00 00 00 00       	mov    $0x0,%edx
    2b02:	89 c6                	mov    %eax,%esi
    2b04:	bf 09 00 00 00       	mov    $0x9,%edi
    2b09:	b8 00 00 00 00       	mov    $0x0,%eax
    2b0e:	e8 cd f9 ff ff       	callq  24e0 <ptrace@plt>
    2b13:	48 85 c0             	test   %rax,%rax
    2b16:	0f 95 c0             	setne  %al
    2b19:	84 c0                	test   %al,%al
    2b1b:	74 0e                	je     2b2b <_ZN8Debugger5startEv+0x145>
    2b1d:	48 8d 3d bd 35 00 00 	lea    0x35bd(%rip),%rdi        # 60e1 <_ZNSt8__detailL19_S_invalid_state_idE+0x31>
    2b24:	e8 97 f9 ff ff       	callq  24c0 <perror@plt>
    2b29:	eb 22                	jmp    2b4d <_ZN8Debugger5startEv+0x167>
    2b2b:	48 8d 45 a4          	lea    -0x5c(%rbp),%rax
    2b2f:	48 89 c7             	mov    %rax,%rdi
    2b32:	e8 c9 fa ff ff       	callq  2600 <wait@plt>
    2b37:	8b 45 a4             	mov    -0x5c(%rbp),%eax
    2b3a:	83 e0 7f             	and    $0x7f,%eax
    2b3d:	85 c0                	test   %eax,%eax
    2b3f:	75 b0                	jne    2af1 <_ZN8Debugger5startEv+0x10b>
    2b41:	48 8d 3d a0 35 00 00 	lea    0x35a0(%rip),%rdi        # 60e8 <_ZNSt8__detailL19_S_invalid_state_idE+0x38>
    2b48:	e8 43 fb ff ff       	callq  2690 <puts@plt>
    2b4d:	8b 45 a8             	mov    -0x58(%rbp),%eax
    2b50:	89 c6                	mov    %eax,%esi
    2b52:	48 8d 3d 9f 35 00 00 	lea    0x359f(%rip),%rdi        # 60f8 <_ZNSt8__detailL19_S_invalid_state_idE+0x48>
    2b59:	b8 00 00 00 00       	mov    $0x0,%eax
    2b5e:	e8 5d f8 ff ff       	callq  23c0 <printf@plt>
    2b63:	48 8d 45 b0          	lea    -0x50(%rbp),%rax
    2b67:	48 89 c7             	mov    %rax,%rdi
    2b6a:	e8 71 0e 00 00       	callq  39e0 <_ZNSt6vectorIN8Debugger9addrRangeESaIS1_EED1Ev>
    2b6f:	eb 33                	jmp    2ba4 <_ZN8Debugger5startEv+0x1be>
    2b71:	f3 0f 1e fa          	endbr64 
    2b75:	48 89 c3             	mov    %rax,%rbx
    2b78:	48 8d 45 d0          	lea    -0x30(%rbp),%rax
    2b7c:	48 89 c7             	mov    %rax,%rdi
    2b7f:	e8 5c 0e 00 00       	callq  39e0 <_ZNSt6vectorIN8Debugger9addrRangeESaIS1_EED1Ev>
    2b84:	eb 07                	jmp    2b8d <_ZN8Debugger5startEv+0x1a7>
    2b86:	f3 0f 1e fa          	endbr64 
    2b8a:	48 89 c3             	mov    %rax,%rbx
    2b8d:	48 8d 45 b0          	lea    -0x50(%rbp),%rax
    2b91:	48 89 c7             	mov    %rax,%rdi
    2b94:	e8 47 0e 00 00       	callq  39e0 <_ZNSt6vectorIN8Debugger9addrRangeESaIS1_EED1Ev>
    2b99:	48 89 d8             	mov    %rbx,%rax
    2b9c:	48 89 c7             	mov    %rax,%rdi
    2b9f:	e8 1c fb ff ff       	callq  26c0 <_Unwind_Resume@plt>
    2ba4:	48 8b 45 e8          	mov    -0x18(%rbp),%rax
    2ba8:	64 48 33 04 25 28 00 	xor    %fs:0x28,%rax
    2baf:	00 00 
    2bb1:	74 05                	je     2bb8 <_ZN8Debugger5startEv+0x1d2>
    2bb3:	e8 08 fa ff ff       	callq  25c0 <__stack_chk_fail@plt>
    2bb8:	48 83 c4 68          	add    $0x68,%rsp
    2bbc:	5b                   	pop    %rbx
    2bbd:	5d                   	pop    %rbp
    2bbe:	c3                   	retq   
    2bbf:	90                   	nop

0000000000002bc0 <_ZNSt12_Vector_baseIN8Debugger9addrRangeESaIS1_EEC1Ev>:
    2bc0:	f3 0f 1e fa          	endbr64 
    2bc4:	55                   	push   %rbp
    2bc5:	48 89 e5             	mov    %rsp,%rbp
    2bc8:	48 83 ec 10          	sub    $0x10,%rsp
    2bcc:	48 89 7d f8          	mov    %rdi,-0x8(%rbp)
    2bd0:	48 8b 45 f8          	mov    -0x8(%rbp),%rax
    2bd4:	48 89 c7             	mov    %rax,%rdi
    2bd7:	e8 ee 0f 00 00       	callq  3bca <_ZNSt12_Vector_baseIN8Debugger9addrRangeESaIS1_EE12_Vector_implC1Ev>
    2bdc:	90                   	nop
    2bdd:	c9                   	leaveq 
    2bde:	c3                   	retq   
    2bdf:	90                   	nop

0000000000002be0 <_ZNSt6vectorIN8Debugger9addrRangeESaIS1_EEC1Ev>:
    2be0:	f3 0f 1e fa          	endbr64 
    2be4:	55                   	push   %rbp
    2be5:	48 89 e5             	mov    %rsp,%rbp
    2be8:	48 83 ec 10          	sub    $0x10,%rsp
    2bec:	48 89 7d f8          	mov    %rdi,-0x8(%rbp)
    2bf0:	48 8b 45 f8          	mov    -0x8(%rbp),%rax
    2bf4:	48 89 c7             	mov    %rax,%rdi
    2bf7:	e8 c4 ff ff ff       	callq  2bc0 <_ZNSt12_Vector_baseIN8Debugger9addrRangeESaIS1_EEC1Ev>
    2bfc:	90                   	nop
    2bfd:	c9                   	leaveq 
    2bfe:	c3                   	retq   
    2bff:	90                   	nop

0000000000002c00 <_ZN8Debugger9ReadAddrsEi>:
    2c00:	f3 0f 1e fa          	endbr64 
    2c04:	55                   	push   %rbp
    2c05:	48 89 e5             	mov    %rsp,%rbp
    2c08:	41 57                	push   %r15
    2c0a:	41 56                	push   %r14
    2c0c:	41 55                	push   %r13
    2c0e:	41 54                	push   %r12
    2c10:	53                   	push   %rbx
    2c11:	48 81 ec d8 04 00 00 	sub    $0x4d8,%rsp
    2c18:	48 89 bd 18 fb ff ff 	mov    %rdi,-0x4e8(%rbp)
    2c1f:	48 89 b5 10 fb ff ff 	mov    %rsi,-0x4f0(%rbp)
    2c26:	89 95 0c fb ff ff    	mov    %edx,-0x4f4(%rbp)
    2c2c:	64 48 8b 04 25 28 00 	mov    %fs:0x28,%rax
    2c33:	00 00 
    2c35:	48 89 45 c8          	mov    %rax,-0x38(%rbp)
    2c39:	31 c0                	xor    %eax,%eax
    2c3b:	48 89 e0             	mov    %rsp,%rax
    2c3e:	48 89 c3             	mov    %rax,%rbx
    2c41:	48 8d 3d c4 34 00 00 	lea    0x34c4(%rip),%rdi        # 610c <_ZNSt8__detailL19_S_invalid_state_idE+0x5c>
    2c48:	e8 23 fa ff ff       	callq  2670 <chdir@plt>
    2c4d:	48 8d 85 40 fb ff ff 	lea    -0x4c0(%rbp),%rax
    2c54:	48 89 c7             	mov    %rax,%rdi
    2c57:	e8 74 fa ff ff       	callq  26d0 <_ZNSaIcEC1Ev@plt>
    2c5c:	48 8d 95 40 fb ff ff 	lea    -0x4c0(%rbp),%rdx
    2c63:	48 8d 85 60 fb ff ff 	lea    -0x4a0(%rbp),%rax
    2c6a:	48 8d 35 9d 34 00 00 	lea    0x349d(%rip),%rsi        # 610e <_ZNSt8__detailL19_S_invalid_state_idE+0x5e>
    2c71:	48 89 c7             	mov    %rax,%rdi
    2c74:	e8 b7 f9 ff ff       	callq  2630 <_ZNSt7__cxx1112basic_stringIcSt11char_traitsIcESaIcEEC1EPKcRKS3_@plt>
    2c79:	48 8d 85 40 fb ff ff 	lea    -0x4c0(%rbp),%rax
    2c80:	48 89 c7             	mov    %rax,%rdi
    2c83:	e8 18 f9 ff ff       	callq  25a0 <_ZNSaIcED1Ev@plt>
    2c88:	48 8d 85 80 fb ff ff 	lea    -0x480(%rbp),%rax
    2c8f:	8b 95 0c fb ff ff    	mov    -0x4f4(%rbp),%edx
    2c95:	89 d6                	mov    %edx,%esi
    2c97:	48 89 c7             	mov    %rax,%rdi
    2c9a:	e8 6c fc ff ff       	callq  290b <_ZNSt7__cxx119to_stringEi>
    2c9f:	48 8d 95 80 fb ff ff 	lea    -0x480(%rbp),%rdx
    2ca6:	48 8d 85 60 fb ff ff 	lea    -0x4a0(%rbp),%rax
    2cad:	48 89 d6             	mov    %rdx,%rsi
    2cb0:	48 89 c7             	mov    %rax,%rdi
    2cb3:	e8 68 fa ff ff       	callq  2720 <_ZNSt7__cxx1112basic_stringIcSt11char_traitsIcESaIcEE6appendERKS4_@plt>
    2cb8:	48 8d 85 60 fb ff ff 	lea    -0x4a0(%rbp),%rax
    2cbf:	48 8d 35 52 34 00 00 	lea    0x3452(%rip),%rsi        # 6118 <_ZNSt8__detailL19_S_invalid_state_idE+0x68>
    2cc6:	48 89 c7             	mov    %rax,%rdi
    2cc9:	e8 32 fa ff ff       	callq  2700 <_ZNSt7__cxx1112basic_stringIcSt11char_traitsIcESaIcEE6appendEPKc@plt>
    2cce:	48 8d 85 60 fb ff ff 	lea    -0x4a0(%rbp),%rax
    2cd5:	48 89 c7             	mov    %rax,%rdi
    2cd8:	e8 b3 f7 ff ff       	callq  2490 <_ZNKSt7__cxx1112basic_stringIcSt11char_traitsIcESaIcEE4sizeEv@plt>
    2cdd:	48 89 85 48 fb ff ff 	mov    %rax,-0x4b8(%rbp)
    2ce4:	48 89 c2             	mov    %rax,%rdx
    2ce7:	48 83 c2 01          	add    $0x1,%rdx
    2ceb:	49 89 d6             	mov    %rdx,%r14
    2cee:	41 bf 00 00 00 00    	mov    $0x0,%r15d
    2cf4:	48 89 c2             	mov    %rax,%rdx
    2cf7:	48 83 c2 01          	add    $0x1,%rdx
    2cfb:	49 89 d4             	mov    %rdx,%r12
    2cfe:	41 bd 00 00 00 00    	mov    $0x0,%r13d
    2d04:	48 8d 50 01          	lea    0x1(%rax),%rdx
    2d08:	b8 10 00 00 00       	mov    $0x10,%eax
    2d0d:	48 83 e8 01          	sub    $0x1,%rax
    2d11:	48 01 d0             	add    %rdx,%rax
    2d14:	b9 10 00 00 00       	mov    $0x10,%ecx
    2d19:	ba 00 00 00 00       	mov    $0x0,%edx
    2d1e:	48 f7 f1             	div    %rcx
    2d21:	48 6b c0 10          	imul   $0x10,%rax,%rax
    2d25:	48 89 c2             	mov    %rax,%rdx
    2d28:	48 81 e2 00 f0 ff ff 	and    $0xfffffffffffff000,%rdx
    2d2f:	48 89 e1             	mov    %rsp,%rcx
    2d32:	48 29 d1             	sub    %rdx,%rcx
    2d35:	48 89 ca             	mov    %rcx,%rdx
    2d38:	48 39 d4             	cmp    %rdx,%rsp
    2d3b:	74 12                	je     2d4f <_ZN8Debugger9ReadAddrsEi+0x14f>
    2d3d:	48 81 ec 00 10 00 00 	sub    $0x1000,%rsp
    2d44:	48 83 8c 24 f8 0f 00 	orq    $0x0,0xff8(%rsp)
    2d4b:	00 00 
    2d4d:	eb e9                	jmp    2d38 <_ZN8Debugger9ReadAddrsEi+0x138>
    2d4f:	48 89 c2             	mov    %rax,%rdx
    2d52:	81 e2 ff 0f 00 00    	and    $0xfff,%edx
    2d58:	48 29 d4             	sub    %rdx,%rsp
    2d5b:	48 89 c2             	mov    %rax,%rdx
    2d5e:	81 e2 ff 0f 00 00    	and    $0xfff,%edx
    2d64:	48 85 d2             	test   %rdx,%rdx
    2d67:	74 10                	je     2d79 <_ZN8Debugger9ReadAddrsEi+0x179>
    2d69:	25 ff 0f 00 00       	and    $0xfff,%eax
    2d6e:	48 83 e8 08          	sub    $0x8,%rax
    2d72:	48 01 e0             	add    %rsp,%rax
    2d75:	48 83 08 00          	orq    $0x0,(%rax)
    2d79:	48 89 e0             	mov    %rsp,%rax
    2d7c:	48 83 c0 00          	add    $0x0,%rax
    2d80:	48 89 85 50 fb ff ff 	mov    %rax,-0x4b0(%rbp)
    2d87:	48 8d 85 60 fb ff ff 	lea    -0x4a0(%rbp),%rax
    2d8e:	48 89 c7             	mov    %rax,%rdi
    2d91:	e8 9a f6 ff ff       	callq  2430 <_ZNKSt7__cxx1112basic_stringIcSt11char_traitsIcESaIcEE5c_strEv@plt>
    2d96:	48 89 c2             	mov    %rax,%rdx
    2d99:	48 8b 85 50 fb ff ff 	mov    -0x4b0(%rbp),%rax
    2da0:	48 89 d6             	mov    %rdx,%rsi
    2da3:	48 89 c7             	mov    %rax,%rdi
    2da6:	e8 75 f7 ff ff       	callq  2520 <strcpy@plt>
    2dab:	48 8b 85 50 fb ff ff 	mov    -0x4b0(%rbp),%rax
    2db2:	48 89 c7             	mov    %rax,%rdi
    2db5:	e8 36 f7 ff ff       	callq  24f0 <system@plt>
    2dba:	48 8d 3d 9f 33 00 00 	lea    0x339f(%rip),%rdi        # 6160 <_ZNSt8__detailL19_S_invalid_state_idE+0xb0>
    2dc1:	e8 aa f8 ff ff       	callq  2670 <chdir@plt>
    2dc6:	48 8d 85 b0 fd ff ff 	lea    -0x250(%rbp),%rax
    2dcd:	ba 08 00 00 00       	mov    $0x8,%edx
    2dd2:	48 8d 35 ba 33 00 00 	lea    0x33ba(%rip),%rsi        # 6193 <_ZNSt8__detailL19_S_invalid_state_idE+0xe3>
    2dd9:	48 89 c7             	mov    %rax,%rdi
    2ddc:	e8 0f f9 ff ff       	callq  26f0 <_ZNSt14basic_ifstreamIcSt11char_traitsIcEEC1EPKcSt13_Ios_Openmode@plt>
    2de1:	48 c7 85 38 fb ff ff 	movq   $0x0,-0x4c8(%rbp)
    2de8:	00 00 00 00 
    2dec:	48 8d 85 a0 fb ff ff 	lea    -0x460(%rbp),%rax
    2df3:	48 89 c7             	mov    %rax,%rdi
    2df6:	e8 45 f8 ff ff       	callq  2640 <_ZNSt7__cxx1112basic_stringIcSt11char_traitsIcESaIcEEC1Ev@plt>
    2dfb:	48 8d 35 9b 33 00 00 	lea    0x339b(%rip),%rsi        # 619d <_ZNSt8__detailL19_S_invalid_state_idE+0xed>
    2e02:	48 8d 3d 8a 33 00 00 	lea    0x338a(%rip),%rdi        # 6193 <_ZNSt8__detailL19_S_invalid_state_idE+0xe3>
    2e09:	e8 c2 f7 ff ff       	callq  25d0 <fopen@plt>
    2e0e:	48 89 85 58 fb ff ff 	mov    %rax,-0x4a8(%rbp)
    2e15:	48 8d 85 c0 fb ff ff 	lea    -0x440(%rbp),%rax
    2e1c:	48 89 c7             	mov    %rax,%rdi
    2e1f:	e8 1c f8 ff ff       	callq  2640 <_ZNSt7__cxx1112basic_stringIcSt11char_traitsIcESaIcEEC1Ev@plt>
    2e24:	48 8d 85 e0 fb ff ff 	lea    -0x420(%rbp),%rax
    2e2b:	48 89 c7             	mov    %rax,%rdi
    2e2e:	e8 0d f8 ff ff       	callq  2640 <_ZNSt7__cxx1112basic_stringIcSt11char_traitsIcESaIcEEC1Ev@plt>
    2e33:	48 8d 85 00 fc ff ff 	lea    -0x400(%rbp),%rax
    2e3a:	48 89 c7             	mov    %rax,%rdi
    2e3d:	e8 fe f7 ff ff       	callq  2640 <_ZNSt7__cxx1112basic_stringIcSt11char_traitsIcESaIcEEC1Ev@plt>
    2e42:	48 8d 85 20 fc ff ff 	lea    -0x3e0(%rbp),%rax
    2e49:	48 89 c7             	mov    %rax,%rdi
    2e4c:	e8 ef f7 ff ff       	callq  2640 <_ZNSt7__cxx1112basic_stringIcSt11char_traitsIcESaIcEEC1Ev@plt>
    2e51:	48 8b 85 18 fb ff ff 	mov    -0x4e8(%rbp),%rax
    2e58:	48 89 c7             	mov    %rax,%rdi
    2e5b:	e8 80 fd ff ff       	callq  2be0 <_ZNSt6vectorIN8Debugger9addrRangeESaIS1_EEC1Ev>
    2e60:	48 8b 95 58 fb ff ff 	mov    -0x4a8(%rbp),%rdx
    2e67:	48 8d 8d 40 fb ff ff 	lea    -0x4c0(%rbp),%rcx
    2e6e:	48 8d 85 38 fb ff ff 	lea    -0x4c8(%rbp),%rax
    2e75:	48 89 ce             	mov    %rcx,%rsi
    2e78:	48 89 c7             	mov    %rax,%rdi
    2e7b:	e8 a0 f7 ff ff       	callq  2620 <getline@plt>
    2e80:	48 83 f8 ff          	cmp    $0xffffffffffffffff,%rax
    2e84:	0f 95 c0             	setne  %al
    2e87:	0f b6 c0             	movzbl %al,%eax
    2e8a:	89 85 30 fb ff ff    	mov    %eax,-0x4d0(%rbp)
    2e90:	83 bd 30 fb ff ff 00 	cmpl   $0x0,-0x4d0(%rbp)
    2e97:	0f 95 c0             	setne  %al
    2e9a:	84 c0                	test   %al,%al
    2e9c:	0f 84 54 04 00 00    	je     32f6 <_ZN8Debugger9ReadAddrsEi+0x6f6>
    2ea2:	48 8d 85 2f fb ff ff 	lea    -0x4d1(%rbp),%rax
    2ea9:	48 89 c7             	mov    %rax,%rdi
    2eac:	e8 1f f8 ff ff       	callq  26d0 <_ZNSaIcEC1Ev@plt>
    2eb1:	48 8b 8d 38 fb ff ff 	mov    -0x4c8(%rbp),%rcx
    2eb8:	48 8d 95 2f fb ff ff 	lea    -0x4d1(%rbp),%rdx
    2ebf:	48 8d 85 40 fc ff ff 	lea    -0x3c0(%rbp),%rax
    2ec6:	48 89 ce             	mov    %rcx,%rsi
    2ec9:	48 89 c7             	mov    %rax,%rdi
    2ecc:	e8 5f f7 ff ff       	callq  2630 <_ZNSt7__cxx1112basic_stringIcSt11char_traitsIcESaIcEEC1EPKcRKS3_@plt>
    2ed1:	48 8d 95 40 fc ff ff 	lea    -0x3c0(%rbp),%rdx
    2ed8:	48 8d 85 a0 fb ff ff 	lea    -0x460(%rbp),%rax
    2edf:	48 89 d6             	mov    %rdx,%rsi
    2ee2:	48 89 c7             	mov    %rax,%rdi
    2ee5:	e8 f6 f6 ff ff       	callq  25e0 <_ZNSt7__cxx1112basic_stringIcSt11char_traitsIcESaIcEEaSEOS4_@plt>
    2eea:	48 8d 85 40 fc ff ff 	lea    -0x3c0(%rbp),%rax
    2ef1:	48 89 c7             	mov    %rax,%rdi
    2ef4:	e8 67 f5 ff ff       	callq  2460 <_ZNSt7__cxx1112basic_stringIcSt11char_traitsIcESaIcEED1Ev@plt>
    2ef9:	48 8d 85 2f fb ff ff 	lea    -0x4d1(%rbp),%rax
    2f00:	48 89 c7             	mov    %rax,%rdi
    2f03:	e8 98 f6 ff ff       	callq  25a0 <_ZNSaIcED1Ev@plt>
    2f08:	48 8d 85 a0 fb ff ff 	lea    -0x460(%rbp),%rax
    2f0f:	ba 00 00 00 00       	mov    $0x0,%edx
    2f14:	be 2d 00 00 00       	mov    $0x2d,%esi
    2f19:	48 89 c7             	mov    %rax,%rdi
    2f1c:	e8 4f f5 ff ff       	callq  2470 <_ZNKSt7__cxx1112basic_stringIcSt11char_traitsIcESaIcEE13find_first_ofEcm@plt>
    2f21:	89 85 34 fb ff ff    	mov    %eax,-0x4cc(%rbp)
    2f27:	8b 85 34 fb ff ff    	mov    -0x4cc(%rbp),%eax
    2f2d:	48 63 d0             	movslq %eax,%rdx
    2f30:	48 8d 85 60 fc ff ff 	lea    -0x3a0(%rbp),%rax
    2f37:	48 8d b5 a0 fb ff ff 	lea    -0x460(%rbp),%rsi
    2f3e:	48 89 d1             	mov    %rdx,%rcx
    2f41:	ba 00 00 00 00       	mov    $0x0,%edx
    2f46:	48 89 c7             	mov    %rax,%rdi
    2f49:	e8 22 f6 ff ff       	callq  2570 <_ZNKSt7__cxx1112basic_stringIcSt11char_traitsIcESaIcEE6substrEmm@plt>
    2f4e:	48 8d 95 60 fc ff ff 	lea    -0x3a0(%rbp),%rdx
    2f55:	48 8d 85 c0 fb ff ff 	lea    -0x440(%rbp),%rax
    2f5c:	48 89 d6             	mov    %rdx,%rsi
    2f5f:	48 89 c7             	mov    %rax,%rdi
    2f62:	e8 79 f6 ff ff       	callq  25e0 <_ZNSt7__cxx1112basic_stringIcSt11char_traitsIcESaIcEEaSEOS4_@plt>
    2f67:	48 8d 85 60 fc ff ff 	lea    -0x3a0(%rbp),%rax
    2f6e:	48 89 c7             	mov    %rax,%rdi
    2f71:	e8 ea f4 ff ff       	callq  2460 <_ZNSt7__cxx1112basic_stringIcSt11char_traitsIcESaIcEED1Ev@plt>
    2f76:	48 8d 85 c0 fb ff ff 	lea    -0x440(%rbp),%rax
    2f7d:	48 8d 35 1b 32 00 00 	lea    0x321b(%rip),%rsi        # 619f <_ZNSt8__detailL19_S_invalid_state_idE+0xef>
    2f84:	48 89 c7             	mov    %rax,%rdi
    2f87:	e8 74 f7 ff ff       	callq  2700 <_ZNSt7__cxx1112basic_stringIcSt11char_traitsIcESaIcEE6appendEPKc@plt>
    2f8c:	8b 85 34 fb ff ff    	mov    -0x4cc(%rbp),%eax
    2f92:	48 63 c8             	movslq %eax,%rcx
    2f95:	8b 85 34 fb ff ff    	mov    -0x4cc(%rbp),%eax
    2f9b:	83 c0 01             	add    $0x1,%eax
    2f9e:	48 63 d0             	movslq %eax,%rdx
    2fa1:	48 8d 85 80 fc ff ff 	lea    -0x380(%rbp),%rax
    2fa8:	48 8d b5 a0 fb ff ff 	lea    -0x460(%rbp),%rsi
    2faf:	48 89 c7             	mov    %rax,%rdi
    2fb2:	e8 b9 f5 ff ff       	callq  2570 <_ZNKSt7__cxx1112basic_stringIcSt11char_traitsIcESaIcEE6substrEmm@plt>
    2fb7:	48 8d 95 80 fc ff ff 	lea    -0x380(%rbp),%rdx
    2fbe:	48 8d 85 e0 fb ff ff 	lea    -0x420(%rbp),%rax
    2fc5:	48 89 d6             	mov    %rdx,%rsi
    2fc8:	48 89 c7             	mov    %rax,%rdi
    2fcb:	e8 10 f6 ff ff       	callq  25e0 <_ZNSt7__cxx1112basic_stringIcSt11char_traitsIcESaIcEEaSEOS4_@plt>
    2fd0:	48 8d 85 80 fc ff ff 	lea    -0x380(%rbp),%rax
    2fd7:	48 89 c7             	mov    %rax,%rdi
    2fda:	e8 81 f4 ff ff       	callq  2460 <_ZNSt7__cxx1112basic_stringIcSt11char_traitsIcESaIcEED1Ev@plt>
    2fdf:	48 8d 85 e0 fb ff ff 	lea    -0x420(%rbp),%rax
    2fe6:	48 8d 35 b2 31 00 00 	lea    0x31b2(%rip),%rsi        # 619f <_ZNSt8__detailL19_S_invalid_state_idE+0xef>
    2fed:	48 89 c7             	mov    %rax,%rdi
    2ff0:	e8 0b f7 ff ff       	callq  2700 <_ZNSt7__cxx1112basic_stringIcSt11char_traitsIcESaIcEE6appendEPKc@plt>
    2ff5:	8b 85 34 fb ff ff    	mov    -0x4cc(%rbp),%eax
    2ffb:	83 c0 01             	add    $0x1,%eax
    2ffe:	01 c0                	add    %eax,%eax
    3000:	48 63 d0             	movslq %eax,%rdx
    3003:	48 8d 85 a0 fc ff ff 	lea    -0x360(%rbp),%rax
    300a:	48 8d b5 a0 fb ff ff 	lea    -0x460(%rbp),%rsi
    3011:	b9 04 00 00 00       	mov    $0x4,%ecx
    3016:	48 89 c7             	mov    %rax,%rdi
    3019:	e8 52 f5 ff ff       	callq  2570 <_ZNKSt7__cxx1112basic_stringIcSt11char_traitsIcESaIcEE6substrEmm@plt>
    301e:	48 8d 95 a0 fc ff ff 	lea    -0x360(%rbp),%rdx
    3025:	48 8d 85 00 fc ff ff 	lea    -0x400(%rbp),%rax
    302c:	48 89 d6             	mov    %rdx,%rsi
    302f:	48 89 c7             	mov    %rax,%rdi
    3032:	e8 a9 f5 ff ff       	callq  25e0 <_ZNSt7__cxx1112basic_stringIcSt11char_traitsIcESaIcEEaSEOS4_@plt>
    3037:	48 8d 85 a0 fc ff ff 	lea    -0x360(%rbp),%rax
    303e:	48 89 c7             	mov    %rax,%rdi
    3041:	e8 1a f4 ff ff       	callq  2460 <_ZNSt7__cxx1112basic_stringIcSt11char_traitsIcESaIcEED1Ev@plt>
    3046:	48 8d 85 a0 fb ff ff 	lea    -0x460(%rbp),%rax
    304d:	48 c7 c2 ff ff ff ff 	mov    $0xffffffffffffffff,%rdx
    3054:	48 8d 35 b1 30 00 00 	lea    0x30b1(%rip),%rsi        # 610c <_ZNSt8__detailL19_S_invalid_state_idE+0x5c>
    305b:	48 89 c7             	mov    %rax,%rdi
    305e:	e8 dd f4 ff ff       	callq  2540 <_ZNKSt7__cxx1112basic_stringIcSt11char_traitsIcESaIcEE12find_last_ofEPKcm@plt>
    3063:	89 85 34 fb ff ff    	mov    %eax,-0x4cc(%rbp)
    3069:	8b 85 34 fb ff ff    	mov    -0x4cc(%rbp),%eax
    306f:	48 98                	cltq   
    3071:	48 83 f8 ff          	cmp    $0xffffffffffffffff,%rax
    3075:	74 53                	je     30ca <_ZN8Debugger9ReadAddrsEi+0x4ca>
    3077:	8b 85 34 fb ff ff    	mov    -0x4cc(%rbp),%eax
    307d:	48 63 d0             	movslq %eax,%rdx
    3080:	48 8d 85 c0 fc ff ff 	lea    -0x340(%rbp),%rax
    3087:	48 8d b5 a0 fb ff ff 	lea    -0x460(%rbp),%rsi
    308e:	48 c7 c1 ff ff ff ff 	mov    $0xffffffffffffffff,%rcx
    3095:	48 89 c7             	mov    %rax,%rdi
    3098:	e8 d3 f4 ff ff       	callq  2570 <_ZNKSt7__cxx1112basic_stringIcSt11char_traitsIcESaIcEE6substrEmm@plt>
    309d:	48 8d 95 c0 fc ff ff 	lea    -0x340(%rbp),%rdx
    30a4:	48 8d 85 20 fc ff ff 	lea    -0x3e0(%rbp),%rax
    30ab:	48 89 d6             	mov    %rdx,%rsi
    30ae:	48 89 c7             	mov    %rax,%rdi
    30b1:	e8 2a f5 ff ff       	callq  25e0 <_ZNSt7__cxx1112basic_stringIcSt11char_traitsIcESaIcEEaSEOS4_@plt>
    30b6:	48 8d 85 c0 fc ff ff 	lea    -0x340(%rbp),%rax
    30bd:	48 89 c7             	mov    %rax,%rdi
    30c0:	e8 9b f3 ff ff       	callq  2460 <_ZNSt7__cxx1112basic_stringIcSt11char_traitsIcESaIcEED1Ev@plt>
    30c5:	e9 82 00 00 00       	jmpq   314c <_ZN8Debugger9ReadAddrsEi+0x54c>
    30ca:	48 8d 85 a0 fb ff ff 	lea    -0x460(%rbp),%rax
    30d1:	ba 00 00 00 00       	mov    $0x0,%edx
    30d6:	48 8d 35 c7 30 00 00 	lea    0x30c7(%rip),%rsi        # 61a4 <_ZNSt8__detailL19_S_invalid_state_idE+0xf4>
    30dd:	48 89 c7             	mov    %rax,%rdi
    30e0:	e8 5b f3 ff ff       	callq  2440 <_ZNKSt7__cxx1112basic_stringIcSt11char_traitsIcESaIcEE13find_first_ofEPKcm@plt>
    30e5:	89 85 34 fb ff ff    	mov    %eax,-0x4cc(%rbp)
    30eb:	8b 85 34 fb ff ff    	mov    -0x4cc(%rbp),%eax
    30f1:	48 98                	cltq   
    30f3:	48 83 f8 ff          	cmp    $0xffffffffffffffff,%rax
    30f7:	0f 95 c0             	setne  %al
    30fa:	84 c0                	test   %al,%al
    30fc:	74 4e                	je     314c <_ZN8Debugger9ReadAddrsEi+0x54c>
    30fe:	8b 85 34 fb ff ff    	mov    -0x4cc(%rbp),%eax
    3104:	48 63 d0             	movslq %eax,%rdx
    3107:	48 8d 85 e0 fc ff ff 	lea    -0x320(%rbp),%rax
    310e:	48 8d b5 a0 fb ff ff 	lea    -0x460(%rbp),%rsi
    3115:	48 c7 c1 ff ff ff ff 	mov    $0xffffffffffffffff,%rcx
    311c:	48 89 c7             	mov    %rax,%rdi
    311f:	e8 4c f4 ff ff       	callq  2570 <_ZNKSt7__cxx1112basic_stringIcSt11char_traitsIcESaIcEE6substrEmm@plt>
    3124:	48 8d 95 e0 fc ff ff 	lea    -0x320(%rbp),%rdx
    312b:	48 8d 85 20 fc ff ff 	lea    -0x3e0(%rbp),%rax
    3132:	48 89 d6             	mov    %rdx,%rsi
    3135:	48 89 c7             	mov    %rax,%rdi
    3138:	e8 a3 f4 ff ff       	callq  25e0 <_ZNSt7__cxx1112basic_stringIcSt11char_traitsIcESaIcEEaSEOS4_@plt>
    313d:	48 8d 85 e0 fc ff ff 	lea    -0x320(%rbp),%rax
    3144:	48 89 c7             	mov    %rax,%rdi
    3147:	e8 14 f3 ff ff       	callq  2460 <_ZNSt7__cxx1112basic_stringIcSt11char_traitsIcESaIcEED1Ev@plt>
    314c:	48 8d 35 53 30 00 00 	lea    0x3053(%rip),%rsi        # 61a6 <_ZNSt8__detailL19_S_invalid_state_idE+0xf6>
    3153:	48 8b 05 76 5e 00 00 	mov    0x5e76(%rip),%rax        # 8fd0 <_ZSt4cout@GLIBCXX_3.4>
    315a:	48 89 c7             	mov    %rax,%rdi
    315d:	e8 ee f3 ff ff       	callq  2550 <_ZStlsISt11char_traitsIcEERSt13basic_ostreamIcT_ES5_PKc@plt>
    3162:	48 89 c2             	mov    %rax,%rdx
    3165:	48 8d 85 c0 fb ff ff 	lea    -0x440(%rbp),%rax
    316c:	48 89 c6             	mov    %rax,%rsi
    316f:	48 89 d7             	mov    %rdx,%rdi
    3172:	e8 99 f3 ff ff       	callq  2510 <_ZStlsIcSt11char_traitsIcESaIcEERSt13basic_ostreamIT_T0_ES7_RKNSt7__cxx1112basic_stringIS4_S5_T1_EE@plt>
    3177:	48 8d 35 30 30 00 00 	lea    0x3030(%rip),%rsi        # 61ae <_ZNSt8__detailL19_S_invalid_state_idE+0xfe>
    317e:	48 89 c7             	mov    %rax,%rdi
    3181:	e8 ca f3 ff ff       	callq  2550 <_ZStlsISt11char_traitsIcEERSt13basic_ostreamIcT_ES5_PKc@plt>
    3186:	48 89 c2             	mov    %rax,%rdx
    3189:	48 8d 85 e0 fb ff ff 	lea    -0x420(%rbp),%rax
    3190:	48 89 c6             	mov    %rax,%rsi
    3193:	48 89 d7             	mov    %rdx,%rdi
    3196:	e8 75 f3 ff ff       	callq  2510 <_ZStlsIcSt11char_traitsIcESaIcEERSt13basic_ostreamIT_T0_ES7_RKNSt7__cxx1112basic_stringIS4_S5_T1_EE@plt>
    319b:	48 8d 35 15 30 00 00 	lea    0x3015(%rip),%rsi        # 61b7 <_ZNSt8__detailL19_S_invalid_state_idE+0x107>
    31a2:	48 89 c7             	mov    %rax,%rdi
    31a5:	e8 a6 f3 ff ff       	callq  2550 <_ZStlsISt11char_traitsIcEERSt13basic_ostreamIcT_ES5_PKc@plt>
    31aa:	48 89 c2             	mov    %rax,%rdx
    31ad:	48 8d 85 00 fc ff ff 	lea    -0x400(%rbp),%rax
    31b4:	48 89 c6             	mov    %rax,%rsi
    31b7:	48 89 d7             	mov    %rdx,%rdi
    31ba:	e8 51 f3 ff ff       	callq  2510 <_ZStlsIcSt11char_traitsIcESaIcEERSt13basic_ostreamIT_T0_ES7_RKNSt7__cxx1112basic_stringIS4_S5_T1_EE@plt>
    31bf:	48 8d 35 fb 2f 00 00 	lea    0x2ffb(%rip),%rsi        # 61c1 <_ZNSt8__detailL19_S_invalid_state_idE+0x111>
    31c6:	48 89 c7             	mov    %rax,%rdi
    31c9:	e8 82 f3 ff ff       	callq  2550 <_ZStlsISt11char_traitsIcEERSt13basic_ostreamIcT_ES5_PKc@plt>
    31ce:	48 89 c2             	mov    %rax,%rdx
    31d1:	48 8d 85 20 fc ff ff 	lea    -0x3e0(%rbp),%rax
    31d8:	48 89 c6             	mov    %rax,%rsi
    31db:	48 89 d7             	mov    %rdx,%rdi
    31de:	e8 2d f3 ff ff       	callq  2510 <_ZStlsIcSt11char_traitsIcESaIcEERSt13basic_ostreamIT_T0_ES7_RKNSt7__cxx1112basic_stringIS4_S5_T1_EE@plt>
    31e3:	48 89 c2             	mov    %rax,%rdx
    31e6:	48 8b 05 d3 5d 00 00 	mov    0x5dd3(%rip),%rax        # 8fc0 <_ZSt4endlIcSt11char_traitsIcEERSt13basic_ostreamIT_T0_ES6_@GLIBCXX_3.4>
    31ed:	48 89 c6             	mov    %rax,%rsi
    31f0:	48 89 d7             	mov    %rdx,%rdi
    31f3:	e8 88 f3 ff ff       	callq  2580 <_ZNSolsEPFRSoS_E@plt>
    31f8:	48 8d 85 c0 fb ff ff 	lea    -0x440(%rbp),%rax
    31ff:	48 89 c7             	mov    %rax,%rdi
    3202:	e8 29 f2 ff ff       	callq  2430 <_ZNKSt7__cxx1112basic_stringIcSt11char_traitsIcESaIcEE5c_strEv@plt>
    3207:	48 89 c2             	mov    %rax,%rdx
    320a:	48 8d 85 00 fd ff ff 	lea    -0x300(%rbp),%rax
    3211:	48 89 d6             	mov    %rdx,%rsi
    3214:	48 89 c7             	mov    %rax,%rdi
    3217:	e8 04 f3 ff ff       	callq  2520 <strcpy@plt>
    321c:	48 8d 85 e0 fb ff ff 	lea    -0x420(%rbp),%rax
    3223:	48 89 c7             	mov    %rax,%rdi
    3226:	e8 05 f2 ff ff       	callq  2430 <_ZNKSt7__cxx1112basic_stringIcSt11char_traitsIcESaIcEE5c_strEv@plt>
    322b:	48 89 c2             	mov    %rax,%rdx
    322e:	48 8d 85 00 fd ff ff 	lea    -0x300(%rbp),%rax
    3235:	48 83 c0 11          	add    $0x11,%rax
    3239:	48 89 d6             	mov    %rdx,%rsi
    323c:	48 89 c7             	mov    %rax,%rdi
    323f:	e8 dc f2 ff ff       	callq  2520 <strcpy@plt>
    3244:	48 8d 85 00 fc ff ff 	lea    -0x400(%rbp),%rax
    324b:	48 89 c7             	mov    %rax,%rdi
    324e:	e8 dd f1 ff ff       	callq  2430 <_ZNKSt7__cxx1112basic_stringIcSt11char_traitsIcESaIcEE5c_strEv@plt>
    3253:	48 89 c2             	mov    %rax,%rdx
    3256:	48 8d 85 00 fd ff ff 	lea    -0x300(%rbp),%rax
    325d:	48 83 c0 22          	add    $0x22,%rax
    3261:	48 89 d6             	mov    %rdx,%rsi
    3264:	48 89 c7             	mov    %rax,%rdi
    3267:	e8 b4 f2 ff ff       	callq  2520 <strcpy@plt>
    326c:	48 8d 85 20 fc ff ff 	lea    -0x3e0(%rbp),%rax
    3273:	48 89 c7             	mov    %rax,%rdi
    3276:	e8 b5 f1 ff ff       	callq  2430 <_ZNKSt7__cxx1112basic_stringIcSt11char_traitsIcESaIcEE5c_strEv@plt>
    327b:	48 89 c2             	mov    %rax,%rdx
    327e:	48 8d 85 00 fd ff ff 	lea    -0x300(%rbp),%rax
    3285:	48 83 c0 26          	add    $0x26,%rax
    3289:	48 89 d6             	mov    %rdx,%rsi
    328c:	48 89 c7             	mov    %rax,%rdi
    328f:	e8 8c f2 ff ff       	callq  2520 <strcpy@plt>
    3294:	48 8d 35 2f 2f 00 00 	lea    0x2f2f(%rip),%rsi        # 61ca <_ZNSt8__detailL19_S_invalid_state_idE+0x11a>
    329b:	48 8b 05 2e 5d 00 00 	mov    0x5d2e(%rip),%rax        # 8fd0 <_ZSt4cout@GLIBCXX_3.4>
    32a2:	48 89 c7             	mov    %rax,%rdi
    32a5:	e8 a6 f2 ff ff       	callq  2550 <_ZStlsISt11char_traitsIcEERSt13basic_ostreamIcT_ES5_PKc@plt>
    32aa:	48 89 c2             	mov    %rax,%rdx
    32ad:	48 8d 85 00 fd ff ff 	lea    -0x300(%rbp),%rax
    32b4:	48 83 c0 22          	add    $0x22,%rax
    32b8:	48 89 c6             	mov    %rax,%rsi
    32bb:	48 89 d7             	mov    %rdx,%rdi
    32be:	e8 8d f2 ff ff       	callq  2550 <_ZStlsISt11char_traitsIcEERSt13basic_ostreamIcT_ES5_PKc@plt>
    32c3:	48 89 c2             	mov    %rax,%rdx
    32c6:	48 8b 05 f3 5c 00 00 	mov    0x5cf3(%rip),%rax        # 8fc0 <_ZSt4endlIcSt11char_traitsIcEERSt13basic_ostreamIT_T0_ES6_@GLIBCXX_3.4>
    32cd:	48 89 c6             	mov    %rax,%rsi
    32d0:	48 89 d7             	mov    %rdx,%rdi
    32d3:	e8 a8 f2 ff ff       	callq  2580 <_ZNSolsEPFRSoS_E@plt>
    32d8:	48 8d 95 00 fd ff ff 	lea    -0x300(%rbp),%rdx
    32df:	48 8b 85 18 fb ff ff 	mov    -0x4e8(%rbp),%rax
    32e6:	48 89 d6             	mov    %rdx,%rsi
    32e9:	48 89 c7             	mov    %rax,%rdi
    32ec:	e8 05 09 00 00       	callq  3bf6 <_ZNSt6vectorIN8Debugger9addrRangeESaIS1_EE9push_backERKS1_>
    32f1:	e9 6a fb ff ff       	jmpq   2e60 <_ZN8Debugger9ReadAddrsEi+0x260>
    32f6:	48 8d 35 dd 2e 00 00 	lea    0x2edd(%rip),%rsi        # 61da <_ZNSt8__detailL19_S_invalid_state_idE+0x12a>
    32fd:	48 8b 05 cc 5c 00 00 	mov    0x5ccc(%rip),%rax        # 8fd0 <_ZSt4cout@GLIBCXX_3.4>
    3304:	48 89 c7             	mov    %rax,%rdi
    3307:	e8 44 f2 ff ff       	callq  2550 <_ZStlsISt11char_traitsIcEERSt13basic_ostreamIcT_ES5_PKc@plt>
    330c:	48 89 c2             	mov    %rax,%rdx
    330f:	48 8b 05 aa 5c 00 00 	mov    0x5caa(%rip),%rax        # 8fc0 <_ZSt4endlIcSt11char_traitsIcEERSt13basic_ostreamIT_T0_ES6_@GLIBCXX_3.4>
    3316:	48 89 c6             	mov    %rax,%rsi
    3319:	48 89 d7             	mov    %rdx,%rdi
    331c:	e8 5f f2 ff ff       	callq  2580 <_ZNSolsEPFRSoS_E@plt>
    3321:	90                   	nop
    3322:	48 8d 85 20 fc ff ff 	lea    -0x3e0(%rbp),%rax
    3329:	48 89 c7             	mov    %rax,%rdi
    332c:	e8 2f f1 ff ff       	callq  2460 <_ZNSt7__cxx1112basic_stringIcSt11char_traitsIcESaIcEED1Ev@plt>
    3331:	48 8d 85 00 fc ff ff 	lea    -0x400(%rbp),%rax
    3338:	48 89 c7             	mov    %rax,%rdi
    333b:	e8 20 f1 ff ff       	callq  2460 <_ZNSt7__cxx1112basic_stringIcSt11char_traitsIcESaIcEED1Ev@plt>
    3340:	48 8d 85 e0 fb ff ff 	lea    -0x420(%rbp),%rax
    3347:	48 89 c7             	mov    %rax,%rdi
    334a:	e8 11 f1 ff ff       	callq  2460 <_ZNSt7__cxx1112basic_stringIcSt11char_traitsIcESaIcEED1Ev@plt>
    334f:	48 8d 85 c0 fb ff ff 	lea    -0x440(%rbp),%rax
    3356:	48 89 c7             	mov    %rax,%rdi
    3359:	e8 02 f1 ff ff       	callq  2460 <_ZNSt7__cxx1112basic_stringIcSt11char_traitsIcESaIcEED1Ev@plt>
    335e:	48 8d 85 a0 fb ff ff 	lea    -0x460(%rbp),%rax
    3365:	48 89 c7             	mov    %rax,%rdi
    3368:	e8 f3 f0 ff ff       	callq  2460 <_ZNSt7__cxx1112basic_stringIcSt11char_traitsIcESaIcEED1Ev@plt>
    336d:	48 8d 85 b0 fd ff ff 	lea    -0x250(%rbp),%rax
    3374:	48 89 c7             	mov    %rax,%rdi
    3377:	e8 64 f0 ff ff       	callq  23e0 <_ZNSt14basic_ifstreamIcSt11char_traitsIcEED1Ev@plt>
    337c:	48 8d 85 80 fb ff ff 	lea    -0x480(%rbp),%rax
    3383:	48 89 c7             	mov    %rax,%rdi
    3386:	e8 d5 f0 ff ff       	callq  2460 <_ZNSt7__cxx1112basic_stringIcSt11char_traitsIcESaIcEED1Ev@plt>
    338b:	48 8d 85 60 fb ff ff 	lea    -0x4a0(%rbp),%rax
    3392:	48 89 c7             	mov    %rax,%rdi
    3395:	e8 c6 f0 ff ff       	callq  2460 <_ZNSt7__cxx1112basic_stringIcSt11char_traitsIcESaIcEED1Ev@plt>
    339a:	48 89 dc             	mov    %rbx,%rsp
    339d:	90                   	nop
    339e:	48 8b 45 c8          	mov    -0x38(%rbp),%rax
    33a2:	64 48 33 04 25 28 00 	xor    %fs:0x28,%rax
    33a9:	00 00 
    33ab:	0f 84 f7 00 00 00    	je     34a8 <_ZN8Debugger9ReadAddrsEi+0x8a8>
    33b1:	e9 ed 00 00 00       	jmpq   34a3 <_ZN8Debugger9ReadAddrsEi+0x8a3>
    33b6:	f3 0f 1e fa          	endbr64 
    33ba:	48 89 c3             	mov    %rax,%rbx
    33bd:	48 8d 85 40 fb ff ff 	lea    -0x4c0(%rbp),%rax
    33c4:	48 89 c7             	mov    %rax,%rdi
    33c7:	e8 d4 f1 ff ff       	callq  25a0 <_ZNSaIcED1Ev@plt>
    33cc:	48 89 d8             	mov    %rbx,%rax
    33cf:	48 89 c7             	mov    %rax,%rdi
    33d2:	e8 e9 f2 ff ff       	callq  26c0 <_Unwind_Resume@plt>
    33d7:	f3 0f 1e fa          	endbr64 
    33db:	48 89 c3             	mov    %rax,%rbx
    33de:	48 8d 85 2f fb ff ff 	lea    -0x4d1(%rbp),%rax
    33e5:	48 89 c7             	mov    %rax,%rdi
    33e8:	e8 b3 f1 ff ff       	callq  25a0 <_ZNSaIcED1Ev@plt>
    33ed:	eb 07                	jmp    33f6 <_ZN8Debugger9ReadAddrsEi+0x7f6>
    33ef:	f3 0f 1e fa          	endbr64 
    33f3:	48 89 c3             	mov    %rax,%rbx
    33f6:	48 8b 85 18 fb ff ff 	mov    -0x4e8(%rbp),%rax
    33fd:	48 89 c7             	mov    %rax,%rdi
    3400:	e8 db 05 00 00       	callq  39e0 <_ZNSt6vectorIN8Debugger9addrRangeESaIS1_EED1Ev>
    3405:	48 8d 85 20 fc ff ff 	lea    -0x3e0(%rbp),%rax
    340c:	48 89 c7             	mov    %rax,%rdi
    340f:	e8 4c f0 ff ff       	callq  2460 <_ZNSt7__cxx1112basic_stringIcSt11char_traitsIcESaIcEED1Ev@plt>
    3414:	48 8d 85 00 fc ff ff 	lea    -0x400(%rbp),%rax
    341b:	48 89 c7             	mov    %rax,%rdi
    341e:	e8 3d f0 ff ff       	callq  2460 <_ZNSt7__cxx1112basic_stringIcSt11char_traitsIcESaIcEED1Ev@plt>
    3423:	48 8d 85 e0 fb ff ff 	lea    -0x420(%rbp),%rax
    342a:	48 89 c7             	mov    %rax,%rdi
    342d:	e8 2e f0 ff ff       	callq  2460 <_ZNSt7__cxx1112basic_stringIcSt11char_traitsIcESaIcEED1Ev@plt>
    3432:	48 8d 85 c0 fb ff ff 	lea    -0x440(%rbp),%rax
    3439:	48 89 c7             	mov    %rax,%rdi
    343c:	e8 1f f0 ff ff       	callq  2460 <_ZNSt7__cxx1112basic_stringIcSt11char_traitsIcESaIcEED1Ev@plt>
    3441:	eb 07                	jmp    344a <_ZN8Debugger9ReadAddrsEi+0x84a>
    3443:	f3 0f 1e fa          	endbr64 
    3447:	48 89 c3             	mov    %rax,%rbx
    344a:	48 8d 85 a0 fb ff ff 	lea    -0x460(%rbp),%rax
    3451:	48 89 c7             	mov    %rax,%rdi
    3454:	e8 07 f0 ff ff       	callq  2460 <_ZNSt7__cxx1112basic_stringIcSt11char_traitsIcESaIcEED1Ev@plt>
    3459:	48 8d 85 b0 fd ff ff 	lea    -0x250(%rbp),%rax
    3460:	48 89 c7             	mov    %rax,%rdi
    3463:	e8 78 ef ff ff       	callq  23e0 <_ZNSt14basic_ifstreamIcSt11char_traitsIcEED1Ev@plt>
    3468:	eb 07                	jmp    3471 <_ZN8Debugger9ReadAddrsEi+0x871>
    346a:	f3 0f 1e fa          	endbr64 
    346e:	48 89 c3             	mov    %rax,%rbx
    3471:	48 8d 85 80 fb ff ff 	lea    -0x480(%rbp),%rax
    3478:	48 89 c7             	mov    %rax,%rdi
    347b:	e8 e0 ef ff ff       	callq  2460 <_ZNSt7__cxx1112basic_stringIcSt11char_traitsIcESaIcEED1Ev@plt>
    3480:	eb 07                	jmp    3489 <_ZN8Debugger9ReadAddrsEi+0x889>
    3482:	f3 0f 1e fa          	endbr64 
    3486:	48 89 c3             	mov    %rax,%rbx
    3489:	48 8d 85 60 fb ff ff 	lea    -0x4a0(%rbp),%rax
    3490:	48 89 c7             	mov    %rax,%rdi
    3493:	e8 c8 ef ff ff       	callq  2460 <_ZNSt7__cxx1112basic_stringIcSt11char_traitsIcESaIcEED1Ev@plt>
    3498:	48 89 d8             	mov    %rbx,%rax
    349b:	48 89 c7             	mov    %rax,%rdi
    349e:	e8 1d f2 ff ff       	callq  26c0 <_Unwind_Resume@plt>
    34a3:	e8 18 f1 ff ff       	callq  25c0 <__stack_chk_fail@plt>
    34a8:	48 8b 85 18 fb ff ff 	mov    -0x4e8(%rbp),%rax
    34af:	48 8d 65 d8          	lea    -0x28(%rbp),%rsp
    34b3:	5b                   	pop    %rbx
    34b4:	41 5c                	pop    %r12
    34b6:	41 5d                	pop    %r13
    34b8:	41 5e                	pop    %r14
    34ba:	41 5f                	pop    %r15
    34bc:	5d                   	pop    %rbp
    34bd:	c3                   	retq   

00000000000034be <_ZN8Debugger6injectESt6vectorINS_9addrRangeESaIS1_EE>:
    34be:	f3 0f 1e fa          	endbr64 
    34c2:	55                   	push   %rbp
    34c3:	48 89 e5             	mov    %rsp,%rbp
    34c6:	53                   	push   %rbx
    34c7:	48 81 ec d8 00 00 00 	sub    $0xd8,%rsp
    34ce:	48 89 bd 28 ff ff ff 	mov    %rdi,-0xd8(%rbp)
    34d5:	48 89 b5 20 ff ff ff 	mov    %rsi,-0xe0(%rbp)
    34dc:	64 48 8b 04 25 28 00 	mov    %fs:0x28,%rax
    34e3:	00 00 
    34e5:	48 89 45 e8          	mov    %rax,-0x18(%rbp)
    34e9:	31 c0                	xor    %eax,%eax
    34eb:	c7 85 34 ff ff ff 00 	movl   $0x0,-0xcc(%rbp)
    34f2:	00 00 00 
    34f5:	c7 85 30 ff ff ff 00 	movl   $0x0,-0xd0(%rbp)
    34fc:	00 00 00 
    34ff:	8b 85 30 ff ff ff    	mov    -0xd0(%rbp),%eax
    3505:	48 63 d8             	movslq %eax,%rbx
    3508:	48 8b 85 20 ff ff ff 	mov    -0xe0(%rbp),%rax
    350f:	48 89 c7             	mov    %rax,%rdi
    3512:	e8 61 07 00 00       	callq  3c78 <_ZNKSt6vectorIN8Debugger9addrRangeESaIS1_EE4sizeEv>
    3517:	48 39 c3             	cmp    %rax,%rbx
    351a:	0f 92 c0             	setb   %al
    351d:	84 c0                	test   %al,%al
    351f:	0f 84 b3 01 00 00    	je     36d8 <_ZN8Debugger6injectESt6vectorINS_9addrRangeESaIS1_EE+0x21a>
    3525:	48 8d 35 be 2c 00 00 	lea    0x2cbe(%rip),%rsi        # 61ea <_ZNSt8__detailL19_S_invalid_state_idE+0x13a>
    352c:	48 8b 05 9d 5a 00 00 	mov    0x5a9d(%rip),%rax        # 8fd0 <_ZSt4cout@GLIBCXX_3.4>
    3533:	48 89 c7             	mov    %rax,%rdi
    3536:	e8 15 f0 ff ff       	callq  2550 <_ZStlsISt11char_traitsIcEERSt13basic_ostreamIcT_ES5_PKc@plt>
    353b:	48 89 c3             	mov    %rax,%rbx
    353e:	8b 85 30 ff ff ff    	mov    -0xd0(%rbp),%eax
    3544:	48 63 d0             	movslq %eax,%rdx
    3547:	48 8b 85 20 ff ff ff 	mov    -0xe0(%rbp),%rax
    354e:	48 89 d6             	mov    %rdx,%rsi
    3551:	48 89 c7             	mov    %rax,%rdi
    3554:	e8 57 07 00 00       	callq  3cb0 <_ZNSt6vectorIN8Debugger9addrRangeESaIS1_EEixEm>
    3559:	48 83 c0 22          	add    $0x22,%rax
    355d:	48 89 c6             	mov    %rax,%rsi
    3560:	48 89 df             	mov    %rbx,%rdi
    3563:	e8 e8 ef ff ff       	callq  2550 <_ZStlsISt11char_traitsIcEERSt13basic_ostreamIcT_ES5_PKc@plt>
    3568:	48 89 c2             	mov    %rax,%rdx
    356b:	48 8b 05 4e 5a 00 00 	mov    0x5a4e(%rip),%rax        # 8fc0 <_ZSt4endlIcSt11char_traitsIcEERSt13basic_ostreamIT_T0_ES6_@GLIBCXX_3.4>
    3572:	48 89 c6             	mov    %rax,%rsi
    3575:	48 89 d7             	mov    %rdx,%rdi
    3578:	e8 03 f0 ff ff       	callq  2580 <_ZNSolsEPFRSoS_E@plt>
    357d:	8b 85 30 ff ff ff    	mov    -0xd0(%rbp),%eax
    3583:	48 63 d0             	movslq %eax,%rdx
    3586:	48 8b 85 20 ff ff ff 	mov    -0xe0(%rbp),%rax
    358d:	48 89 d6             	mov    %rdx,%rsi
    3590:	48 89 c7             	mov    %rax,%rdi
    3593:	e8 18 07 00 00       	callq  3cb0 <_ZNSt6vectorIN8Debugger9addrRangeESaIS1_EEixEm>
    3598:	48 83 c0 26          	add    $0x26,%rax
    359c:	48 89 c6             	mov    %rax,%rsi
    359f:	48 8d 3d 4d 2c 00 00 	lea    0x2c4d(%rip),%rdi        # 61f3 <_ZNSt8__detailL19_S_invalid_state_idE+0x143>
    35a6:	e8 a5 f0 ff ff       	callq  2650 <strcmp@plt>
    35ab:	85 c0                	test   %eax,%eax
    35ad:	0f 94 c0             	sete   %al
    35b0:	84 c0                	test   %al,%al
    35b2:	0f 84 14 01 00 00    	je     36cc <_ZN8Debugger6injectESt6vectorINS_9addrRangeESaIS1_EE+0x20e>
    35b8:	48 8d 35 3f 2c 00 00 	lea    0x2c3f(%rip),%rsi        # 61fe <_ZNSt8__detailL19_S_invalid_state_idE+0x14e>
    35bf:	48 8b 05 0a 5a 00 00 	mov    0x5a0a(%rip),%rax        # 8fd0 <_ZSt4cout@GLIBCXX_3.4>
    35c6:	48 89 c7             	mov    %rax,%rdi
    35c9:	e8 82 ef ff ff       	callq  2550 <_ZStlsISt11char_traitsIcEERSt13basic_ostreamIcT_ES5_PKc@plt>
    35ce:	48 89 c2             	mov    %rax,%rdx
    35d1:	48 8b 05 e8 59 00 00 	mov    0x59e8(%rip),%rax        # 8fc0 <_ZSt4endlIcSt11char_traitsIcEERSt13basic_ostreamIT_T0_ES6_@GLIBCXX_3.4>
    35d8:	48 89 c6             	mov    %rax,%rsi
    35db:	48 89 d7             	mov    %rdx,%rdi
    35de:	e8 9d ef ff ff       	callq  2580 <_ZNSolsEPFRSoS_E@plt>
    35e3:	8b 85 30 ff ff ff    	mov    -0xd0(%rbp),%eax
    35e9:	48 63 d0             	movslq %eax,%rdx
    35ec:	48 8b 85 20 ff ff ff 	mov    -0xe0(%rbp),%rax
    35f3:	48 89 d6             	mov    %rdx,%rsi
    35f6:	48 89 c7             	mov    %rax,%rdi
    35f9:	e8 b2 06 00 00       	callq  3cb0 <_ZNSt6vectorIN8Debugger9addrRangeESaIS1_EEixEm>
    35fe:	48 8b 08             	mov    (%rax),%rcx
    3601:	48 8b 58 08          	mov    0x8(%rax),%rbx
    3605:	48 89 8d 40 ff ff ff 	mov    %rcx,-0xc0(%rbp)
    360c:	48 89 9d 48 ff ff ff 	mov    %rbx,-0xb8(%rbp)
    3613:	48 8b 48 10          	mov    0x10(%rax),%rcx
    3617:	48 8b 58 18          	mov    0x18(%rax),%rbx
    361b:	48 89 8d 50 ff ff ff 	mov    %rcx,-0xb0(%rbp)
    3622:	48 89 9d 58 ff ff ff 	mov    %rbx,-0xa8(%rbp)
    3629:	48 8b 48 20          	mov    0x20(%rax),%rcx
    362d:	48 8b 58 28          	mov    0x28(%rax),%rbx
    3631:	48 89 8d 60 ff ff ff 	mov    %rcx,-0xa0(%rbp)
    3638:	48 89 9d 68 ff ff ff 	mov    %rbx,-0x98(%rbp)
    363f:	48 8b 48 30          	mov    0x30(%rax),%rcx
    3643:	48 8b 58 38          	mov    0x38(%rax),%rbx
    3647:	48 89 8d 70 ff ff ff 	mov    %rcx,-0x90(%rbp)
    364e:	48 89 9d 78 ff ff ff 	mov    %rbx,-0x88(%rbp)
    3655:	48 8b 48 40          	mov    0x40(%rax),%rcx
    3659:	48 8b 58 48          	mov    0x48(%rax),%rbx
    365d:	48 89 4d 80          	mov    %rcx,-0x80(%rbp)
    3661:	48 89 5d 88          	mov    %rbx,-0x78(%rbp)
    3665:	48 8b 48 50          	mov    0x50(%rax),%rcx
    3669:	48 8b 58 58          	mov    0x58(%rax),%rbx
    366d:	48 89 4d 90          	mov    %rcx,-0x70(%rbp)
    3671:	48 89 5d 98          	mov    %rbx,-0x68(%rbp)
    3675:	48 8b 48 60          	mov    0x60(%rax),%rcx
    3679:	48 8b 58 68          	mov    0x68(%rax),%rbx
    367d:	48 89 4d a0          	mov    %rcx,-0x60(%rbp)
    3681:	48 89 5d a8          	mov    %rbx,-0x58(%rbp)
    3685:	48 8b 48 70          	mov    0x70(%rax),%rcx
    3689:	48 8b 58 78          	mov    0x78(%rax),%rbx
    368d:	48 89 4d b0          	mov    %rcx,-0x50(%rbp)
    3691:	48 89 5d b8          	mov    %rbx,-0x48(%rbp)
    3695:	48 8b 88 80 00 00 00 	mov    0x80(%rax),%rcx
    369c:	48 8b 98 88 00 00 00 	mov    0x88(%rax),%rbx
    36a3:	48 89 4d c0          	mov    %rcx,-0x40(%rbp)
    36a7:	48 89 5d c8          	mov    %rbx,-0x38(%rbp)
    36ab:	48 8b 88 90 00 00 00 	mov    0x90(%rax),%rcx
    36b2:	48 8b 98 98 00 00 00 	mov    0x98(%rax),%rbx
    36b9:	48 89 4d d0          	mov    %rcx,-0x30(%rbp)
    36bd:	48 89 5d d8          	mov    %rbx,-0x28(%rbp)
    36c1:	8b 80 a0 00 00 00    	mov    0xa0(%rax),%eax
    36c7:	89 45 e0             	mov    %eax,-0x20(%rbp)
    36ca:	eb 0c                	jmp    36d8 <_ZN8Debugger6injectESt6vectorINS_9addrRangeESaIS1_EE+0x21a>
    36cc:	83 85 30 ff ff ff 01 	addl   $0x1,-0xd0(%rbp)
    36d3:	e9 27 fe ff ff       	jmpq   34ff <_ZN8Debugger6injectESt6vectorINS_9addrRangeESaIS1_EE+0x41>
    36d8:	48 8d 05 2a 2b 00 00 	lea    0x2b2a(%rip),%rax        # 6209 <_ZNSt8__detailL19_S_invalid_state_idE+0x159>
    36df:	48 89 85 38 ff ff ff 	mov    %rax,-0xc8(%rbp)
    36e6:	90                   	nop
    36e7:	48 8b 45 e8          	mov    -0x18(%rbp),%rax
    36eb:	64 48 33 04 25 28 00 	xor    %fs:0x28,%rax
    36f2:	00 00 
    36f4:	74 05                	je     36fb <_ZN8Debugger6injectESt6vectorINS_9addrRangeESaIS1_EE+0x23d>
    36f6:	e8 c5 ee ff ff       	callq  25c0 <__stack_chk_fail@plt>
    36fb:	48 81 c4 d8 00 00 00 	add    $0xd8,%rsp
    3702:	5b                   	pop    %rbx
    3703:	5d                   	pop    %rbp
    3704:	c3                   	retq   
    3705:	90                   	nop

0000000000003706 <_ZN10ControllerC1Ev>:
    3706:	f3 0f 1e fa          	endbr64 
    370a:	55                   	push   %rbp
    370b:	48 89 e5             	mov    %rsp,%rbp
    370e:	48 89 7d f8          	mov    %rdi,-0x8(%rbp)
    3712:	48 8b 45 f8          	mov    -0x8(%rbp),%rax
    3716:	48 8d 15 b3 29 00 00 	lea    0x29b3(%rip),%rdx        # 60d0 <_ZNSt8__detailL19_S_invalid_state_idE+0x20>
    371d:	48 89 10             	mov    %rdx,(%rax)
    3720:	90                   	nop
    3721:	5d                   	pop    %rbp
    3722:	c3                   	retq   
    3723:	90                   	nop

0000000000003724 <_ZN10Controller5startEv>:
    3724:	f3 0f 1e fa          	endbr64 
    3728:	55                   	push   %rbp
    3729:	48 89 e5             	mov    %rsp,%rbp
    372c:	48 83 ec 30          	sub    $0x30,%rsp
    3730:	48 89 7d d8          	mov    %rdi,-0x28(%rbp)
    3734:	64 48 8b 04 25 28 00 	mov    %fs:0x28,%rax
    373b:	00 00 
    373d:	48 89 45 f8          	mov    %rax,-0x8(%rbp)
    3741:	31 c0                	xor    %eax,%eax
    3743:	48 8b 05 66 58 00 00 	mov    0x5866(%rip),%rax        # 8fb0 <stdout@GLIBC_2.2.5>
    374a:	48 8b 00             	mov    (%rax),%rax
    374d:	48 89 c1             	mov    %rax,%rcx
    3750:	ba 12 00 00 00       	mov    $0x12,%edx
    3755:	be 01 00 00 00       	mov    $0x1,%esi
    375a:	48 8d 3d ad 2a 00 00 	lea    0x2aad(%rip),%rdi        # 620e <_ZNSt8__detailL19_S_invalid_state_idE+0x15e>
    3761:	e8 aa ef ff ff       	callq  2710 <fwrite@plt>
    3766:	48 8d 45 e0          	lea    -0x20(%rbp),%rax
    376a:	48 89 c7             	mov    %rax,%rdi
    376d:	e8 2e f2 ff ff       	callq  29a0 <_ZN8DebuggerC1Ev>
    3772:	48 8d 45 e0          	lea    -0x20(%rbp),%rax
    3776:	48 89 c7             	mov    %rax,%rdi
    3779:	e8 68 f2 ff ff       	callq  29e6 <_ZN8Debugger5startEv>
    377e:	90                   	nop
    377f:	48 8b 45 f8          	mov    -0x8(%rbp),%rax
    3783:	64 48 33 04 25 28 00 	xor    %fs:0x28,%rax
    378a:	00 00 
    378c:	74 05                	je     3793 <_ZN10Controller5startEv+0x6f>
    378e:	e8 2d ee ff ff       	callq  25c0 <__stack_chk_fail@plt>
    3793:	c9                   	leaveq 
    3794:	c3                   	retq   

0000000000003795 <_ZN9__gnu_cxx12__to_xstringINSt7__cxx1112basic_stringIcSt11char_traitsIcESaIcEEEcEET_PFiPT0_mPKS8_P13__va_list_tagEmSB_z>:
    3795:	f3 0f 1e fa          	endbr64 
    3799:	55                   	push   %rbp
    379a:	48 89 e5             	mov    %rsp,%rbp
    379d:	53                   	push   %rbx
    379e:	48 81 ec 08 01 00 00 	sub    $0x108,%rsp
    37a5:	48 89 bd 08 ff ff ff 	mov    %rdi,-0xf8(%rbp)
    37ac:	48 89 b5 00 ff ff ff 	mov    %rsi,-0x100(%rbp)
    37b3:	48 89 95 f8 fe ff ff 	mov    %rdx,-0x108(%rbp)
    37ba:	48 89 8d f0 fe ff ff 	mov    %rcx,-0x110(%rbp)
    37c1:	4c 89 85 60 ff ff ff 	mov    %r8,-0xa0(%rbp)
    37c8:	4c 89 8d 68 ff ff ff 	mov    %r9,-0x98(%rbp)
    37cf:	84 c0                	test   %al,%al
    37d1:	74 23                	je     37f6 <_ZN9__gnu_cxx12__to_xstringINSt7__cxx1112basic_stringIcSt11char_traitsIcESaIcEEEcEET_PFiPT0_mPKS8_P13__va_list_tagEmSB_z+0x61>
    37d3:	0f 29 85 70 ff ff ff 	movaps %xmm0,-0x90(%rbp)
    37da:	0f 29 4d 80          	movaps %xmm1,-0x80(%rbp)
    37de:	0f 29 55 90          	movaps %xmm2,-0x70(%rbp)
    37e2:	0f 29 5d a0          	movaps %xmm3,-0x60(%rbp)
    37e6:	0f 29 65 b0          	movaps %xmm4,-0x50(%rbp)
    37ea:	0f 29 6d c0          	movaps %xmm5,-0x40(%rbp)
    37ee:	0f 29 75 d0          	movaps %xmm6,-0x30(%rbp)
    37f2:	0f 29 7d e0          	movaps %xmm7,-0x20(%rbp)
    37f6:	64 48 8b 04 25 28 00 	mov    %fs:0x28,%rax
    37fd:	00 00 
    37ff:	48 89 85 38 ff ff ff 	mov    %rax,-0xc8(%rbp)
    3806:	31 c0                	xor    %eax,%eax
    3808:	48 8b 85 f8 fe ff ff 	mov    -0x108(%rbp),%rax
    380f:	48 8d 50 08          	lea    0x8(%rax),%rdx
    3813:	b8 10 00 00 00       	mov    $0x10,%eax
    3818:	48 83 e8 01          	sub    $0x1,%rax
    381c:	48 01 d0             	add    %rdx,%rax
    381f:	b9 10 00 00 00       	mov    $0x10,%ecx
    3824:	ba 00 00 00 00       	mov    $0x0,%edx
    3829:	48 f7 f1             	div    %rcx
    382c:	48 6b c0 10          	imul   $0x10,%rax,%rax
    3830:	48 89 c2             	mov    %rax,%rdx
    3833:	48 81 e2 00 f0 ff ff 	and    $0xfffffffffffff000,%rdx
    383a:	48 89 e3             	mov    %rsp,%rbx
    383d:	48 29 d3             	sub    %rdx,%rbx
    3840:	48 89 da             	mov    %rbx,%rdx
    3843:	48 39 d4             	cmp    %rdx,%rsp
    3846:	74 12                	je     385a <_ZN9__gnu_cxx12__to_xstringINSt7__cxx1112basic_stringIcSt11char_traitsIcESaIcEEEcEET_PFiPT0_mPKS8_P13__va_list_tagEmSB_z+0xc5>
    3848:	48 81 ec 00 10 00 00 	sub    $0x1000,%rsp
    384f:	48 83 8c 24 f8 0f 00 	orq    $0x0,0xff8(%rsp)
    3856:	00 00 
    3858:	eb e9                	jmp    3843 <_ZN9__gnu_cxx12__to_xstringINSt7__cxx1112basic_stringIcSt11char_traitsIcESaIcEEEcEET_PFiPT0_mPKS8_P13__va_list_tagEmSB_z+0xae>
    385a:	48 89 c2             	mov    %rax,%rdx
    385d:	81 e2 ff 0f 00 00    	and    $0xfff,%edx
    3863:	48 29 d4             	sub    %rdx,%rsp
    3866:	48 89 c2             	mov    %rax,%rdx
    3869:	81 e2 ff 0f 00 00    	and    $0xfff,%edx
    386f:	48 85 d2             	test   %rdx,%rdx
    3872:	74 10                	je     3884 <_ZN9__gnu_cxx12__to_xstringINSt7__cxx1112basic_stringIcSt11char_traitsIcESaIcEEEcEET_PFiPT0_mPKS8_P13__va_list_tagEmSB_z+0xef>
    3874:	25 ff 0f 00 00       	and    $0xfff,%eax
    3879:	48 83 e8 08          	sub    $0x8,%rax
    387d:	48 01 e0             	add    %rsp,%rax
    3880:	48 83 08 00          	orq    $0x0,(%rax)
    3884:	48 89 e0             	mov    %rsp,%rax
    3887:	48 83 c0 0f          	add    $0xf,%rax
    388b:	48 c1 e8 04          	shr    $0x4,%rax
    388f:	48 c1 e0 04          	shl    $0x4,%rax
    3893:	48 89 85 18 ff ff ff 	mov    %rax,-0xe8(%rbp)
    389a:	c7 85 20 ff ff ff 20 	movl   $0x20,-0xe0(%rbp)
    38a1:	00 00 00 
    38a4:	c7 85 24 ff ff ff 30 	movl   $0x30,-0xdc(%rbp)
    38ab:	00 00 00 
    38ae:	48 8d 45 10          	lea    0x10(%rbp),%rax
    38b2:	48 89 85 28 ff ff ff 	mov    %rax,-0xd8(%rbp)
    38b9:	48 8d 85 40 ff ff ff 	lea    -0xc0(%rbp),%rax
    38c0:	48 89 85 30 ff ff ff 	mov    %rax,-0xd0(%rbp)
    38c7:	48 8d 8d 20 ff ff ff 	lea    -0xe0(%rbp),%rcx
    38ce:	48 8b 95 f0 fe ff ff 	mov    -0x110(%rbp),%rdx
    38d5:	48 8b b5 f8 fe ff ff 	mov    -0x108(%rbp),%rsi
    38dc:	48 8b 85 18 ff ff ff 	mov    -0xe8(%rbp),%rax
    38e3:	4c 8b 85 00 ff ff ff 	mov    -0x100(%rbp),%r8
    38ea:	48 89 c7             	mov    %rax,%rdi
    38ed:	41 ff d0             	callq  *%r8
    38f0:	89 85 14 ff ff ff    	mov    %eax,-0xec(%rbp)
    38f6:	48 8d 85 13 ff ff ff 	lea    -0xed(%rbp),%rax
    38fd:	48 89 c7             	mov    %rax,%rdi
    3900:	e8 cb ed ff ff       	callq  26d0 <_ZNSaIcEC1Ev@plt>
    3905:	8b 85 14 ff ff ff    	mov    -0xec(%rbp),%eax
    390b:	48 63 d0             	movslq %eax,%rdx
    390e:	48 8b 85 18 ff ff ff 	mov    -0xe8(%rbp),%rax
    3915:	48 8d 3c 02          	lea    (%rdx,%rax,1),%rdi
    3919:	48 8d 95 13 ff ff ff 	lea    -0xed(%rbp),%rdx
    3920:	48 8b b5 18 ff ff ff 	mov    -0xe8(%rbp),%rsi
    3927:	48 8b 85 08 ff ff ff 	mov    -0xf8(%rbp),%rax
    392e:	48 89 d1             	mov    %rdx,%rcx
    3931:	48 89 fa             	mov    %rdi,%rdx
    3934:	48 89 c7             	mov    %rax,%rdi
    3937:	e8 aa 03 00 00       	callq  3ce6 <_ZNSt7__cxx1112basic_stringIcSt11char_traitsIcESaIcEEC1IPcvEET_S7_RKS3_>
    393c:	48 8d 85 13 ff ff ff 	lea    -0xed(%rbp),%rax
    3943:	48 89 c7             	mov    %rax,%rdi
    3946:	e8 55 ec ff ff       	callq  25a0 <_ZNSaIcED1Ev@plt>
    394b:	48 8b 85 38 ff ff ff 	mov    -0xc8(%rbp),%rax
    3952:	64 48 33 04 25 28 00 	xor    %fs:0x28,%rax
    3959:	00 00 
    395b:	74 28                	je     3985 <_ZN9__gnu_cxx12__to_xstringINSt7__cxx1112basic_stringIcSt11char_traitsIcESaIcEEEcEET_PFiPT0_mPKS8_P13__va_list_tagEmSB_z+0x1f0>
    395d:	eb 21                	jmp    3980 <_ZN9__gnu_cxx12__to_xstringINSt7__cxx1112basic_stringIcSt11char_traitsIcESaIcEEEcEET_PFiPT0_mPKS8_P13__va_list_tagEmSB_z+0x1eb>
    395f:	f3 0f 1e fa          	endbr64 
    3963:	48 89 c3             	mov    %rax,%rbx
    3966:	48 8d 85 13 ff ff ff 	lea    -0xed(%rbp),%rax
    396d:	48 89 c7             	mov    %rax,%rdi
    3970:	e8 2b ec ff ff       	callq  25a0 <_ZNSaIcED1Ev@plt>
    3975:	48 89 d8             	mov    %rbx,%rax
    3978:	48 89 c7             	mov    %rax,%rdi
    397b:	e8 40 ed ff ff       	callq  26c0 <_Unwind_Resume@plt>
    3980:	e8 3b ec ff ff       	callq  25c0 <__stack_chk_fail@plt>
    3985:	48 8b 85 08 ff ff ff 	mov    -0xf8(%rbp),%rax
    398c:	48 8b 5d f8          	mov    -0x8(%rbp),%rbx
    3990:	c9                   	leaveq 
    3991:	c3                   	retq   

0000000000003992 <_ZNSt7__cxx1112basic_stringIcSt11char_traitsIcESaIcEE12_Alloc_hiderD1Ev>:
    3992:	f3 0f 1e fa          	endbr64 
    3996:	55                   	push   %rbp
    3997:	48 89 e5             	mov    %rsp,%rbp
    399a:	48 83 ec 10          	sub    $0x10,%rsp
    399e:	48 89 7d f8          	mov    %rdi,-0x8(%rbp)
    39a2:	48 8b 45 f8          	mov    -0x8(%rbp),%rax
    39a6:	48 89 c7             	mov    %rax,%rdi
    39a9:	e8 22 ea ff ff       	callq  23d0 <_ZNSaIcED2Ev@plt>
    39ae:	90                   	nop
    39af:	c9                   	leaveq 
    39b0:	c3                   	retq   

00000000000039b1 <_ZSt3maxImERKT_S2_S2_>:
    39b1:	f3 0f 1e fa          	endbr64 
    39b5:	55                   	push   %rbp
    39b6:	48 89 e5             	mov    %rsp,%rbp
    39b9:	48 89 7d f8          	mov    %rdi,-0x8(%rbp)
    39bd:	48 89 75 f0          	mov    %rsi,-0x10(%rbp)
    39c1:	48 8b 45 f8          	mov    -0x8(%rbp),%rax
    39c5:	48 8b 10             	mov    (%rax),%rdx
    39c8:	48 8b 45 f0          	mov    -0x10(%rbp),%rax
    39cc:	48 8b 00             	mov    (%rax),%rax
    39cf:	48 39 c2             	cmp    %rax,%rdx
    39d2:	73 06                	jae    39da <_ZSt3maxImERKT_S2_S2_+0x29>
    39d4:	48 8b 45 f0          	mov    -0x10(%rbp),%rax
    39d8:	eb 04                	jmp    39de <_ZSt3maxImERKT_S2_S2_+0x2d>
    39da:	48 8b 45 f8          	mov    -0x8(%rbp),%rax
    39de:	5d                   	pop    %rbp
    39df:	c3                   	retq   

00000000000039e0 <_ZNSt6vectorIN8Debugger9addrRangeESaIS1_EED1Ev>:
    39e0:	f3 0f 1e fa          	endbr64 
    39e4:	55                   	push   %rbp
    39e5:	48 89 e5             	mov    %rsp,%rbp
    39e8:	48 83 ec 10          	sub    $0x10,%rsp
    39ec:	48 89 7d f8          	mov    %rdi,-0x8(%rbp)
    39f0:	48 8b 45 f8          	mov    -0x8(%rbp),%rax
    39f4:	48 89 c7             	mov    %rax,%rdi
    39f7:	e8 6a 03 00 00       	callq  3d66 <_ZNSt12_Vector_baseIN8Debugger9addrRangeESaIS1_EE19_M_get_Tp_allocatorEv>
    39fc:	48 89 c2             	mov    %rax,%rdx
    39ff:	48 8b 45 f8          	mov    -0x8(%rbp),%rax
    3a03:	48 8b 48 08          	mov    0x8(%rax),%rcx
    3a07:	48 8b 45 f8          	mov    -0x8(%rbp),%rax
    3a0b:	48 8b 00             	mov    (%rax),%rax
    3a0e:	48 89 ce             	mov    %rcx,%rsi
    3a11:	48 89 c7             	mov    %rax,%rdi
    3a14:	e8 5f 03 00 00       	callq  3d78 <_ZSt8_DestroyIPN8Debugger9addrRangeES1_EvT_S3_RSaIT0_E>
    3a19:	48 8b 45 f8          	mov    -0x8(%rbp),%rax
    3a1d:	48 89 c7             	mov    %rax,%rdi
    3a20:	e8 23 00 00 00       	callq  3a48 <_ZNSt12_Vector_baseIN8Debugger9addrRangeESaIS1_EED1Ev>
    3a25:	90                   	nop
    3a26:	c9                   	leaveq 
    3a27:	c3                   	retq   

0000000000003a28 <_ZNSaIN8Debugger9addrRangeEED1Ev>:
    3a28:	f3 0f 1e fa          	endbr64 
    3a2c:	55                   	push   %rbp
    3a2d:	48 89 e5             	mov    %rsp,%rbp
    3a30:	48 83 ec 10          	sub    $0x10,%rsp
    3a34:	48 89 7d f8          	mov    %rdi,-0x8(%rbp)
    3a38:	48 8b 45 f8          	mov    -0x8(%rbp),%rax
    3a3c:	48 89 c7             	mov    %rax,%rdi
    3a3f:	e8 8c 03 00 00       	callq  3dd0 <_ZN9__gnu_cxx13new_allocatorIN8Debugger9addrRangeEED1Ev>
    3a44:	90                   	nop
    3a45:	c9                   	leaveq 
    3a46:	c3                   	retq   
    3a47:	90                   	nop

0000000000003a48 <_ZNSt12_Vector_baseIN8Debugger9addrRangeESaIS1_EED1Ev>:
    3a48:	f3 0f 1e fa          	endbr64 
    3a4c:	55                   	push   %rbp
    3a4d:	48 89 e5             	mov    %rsp,%rbp
    3a50:	48 83 ec 10          	sub    $0x10,%rsp
    3a54:	48 89 7d f8          	mov    %rdi,-0x8(%rbp)
    3a58:	48 8b 45 f8          	mov    -0x8(%rbp),%rax
    3a5c:	48 8b 50 10          	mov    0x10(%rax),%rdx
    3a60:	48 8b 45 f8          	mov    -0x8(%rbp),%rax
    3a64:	48 8b 00             	mov    (%rax),%rax
    3a67:	48 29 c2             	sub    %rax,%rdx
    3a6a:	48 89 d0             	mov    %rdx,%rax
    3a6d:	48 c1 f8 02          	sar    $0x2,%rax
    3a71:	48 89 c2             	mov    %rax,%rdx
    3a74:	48 b8 19 9c 8f c1 f9 	movabs $0x8f9c18f9c18f9c19,%rax
    3a7b:	18 9c 8f 
    3a7e:	48 0f af c2          	imul   %rdx,%rax
    3a82:	48 89 c2             	mov    %rax,%rdx
    3a85:	48 8b 45 f8          	mov    -0x8(%rbp),%rax
    3a89:	48 8b 08             	mov    (%rax),%rcx
    3a8c:	48 8b 45 f8          	mov    -0x8(%rbp),%rax
    3a90:	48 89 ce             	mov    %rcx,%rsi
    3a93:	48 89 c7             	mov    %rax,%rdi
    3a96:	e8 45 03 00 00       	callq  3de0 <_ZNSt12_Vector_baseIN8Debugger9addrRangeESaIS1_EE13_M_deallocateEPS1_m>
    3a9b:	48 8b 45 f8          	mov    -0x8(%rbp),%rax
    3a9f:	48 89 c7             	mov    %rax,%rdi
    3aa2:	e8 1f ef ff ff       	callq  29c6 <_ZNSt12_Vector_baseIN8Debugger9addrRangeESaIS1_EE12_Vector_implD1Ev>
    3aa7:	90                   	nop
    3aa8:	c9                   	leaveq 
    3aa9:	c3                   	retq   

0000000000003aaa <_ZNSt6vectorIN8Debugger9addrRangeESaIS1_EEC1ERKS3_>:
    3aaa:	f3 0f 1e fa          	endbr64 
    3aae:	55                   	push   %rbp
    3aaf:	48 89 e5             	mov    %rsp,%rbp
    3ab2:	41 55                	push   %r13
    3ab4:	41 54                	push   %r12
    3ab6:	53                   	push   %rbx
    3ab7:	48 83 ec 28          	sub    $0x28,%rsp
    3abb:	48 89 7d c8          	mov    %rdi,-0x38(%rbp)
    3abf:	48 89 75 c0          	mov    %rsi,-0x40(%rbp)
    3ac3:	64 48 8b 04 25 28 00 	mov    %fs:0x28,%rax
    3aca:	00 00 
    3acc:	48 89 45 d8          	mov    %rax,-0x28(%rbp)
    3ad0:	31 c0                	xor    %eax,%eax
    3ad2:	48 8b 5d c8          	mov    -0x38(%rbp),%rbx
    3ad6:	48 8b 45 c0          	mov    -0x40(%rbp),%rax
    3ada:	48 89 c7             	mov    %rax,%rdi
    3add:	e8 88 03 00 00       	callq  3e6a <_ZNKSt12_Vector_baseIN8Debugger9addrRangeESaIS1_EE19_M_get_Tp_allocatorEv>
    3ae2:	48 89 c2             	mov    %rax,%rdx
    3ae5:	48 8d 45 d7          	lea    -0x29(%rbp),%rax
    3ae9:	48 89 d6             	mov    %rdx,%rsi
    3aec:	48 89 c7             	mov    %rax,%rdi
    3aef:	e8 25 03 00 00       	callq  3e19 <_ZN9__gnu_cxx14__alloc_traitsISaIN8Debugger9addrRangeEES2_E17_S_select_on_copyERKS3_>
    3af4:	48 8b 45 c0          	mov    -0x40(%rbp),%rax
    3af8:	48 89 c7             	mov    %rax,%rdi
    3afb:	e8 78 01 00 00       	callq  3c78 <_ZNKSt6vectorIN8Debugger9addrRangeESaIS1_EE4sizeEv>
    3b00:	48 89 c1             	mov    %rax,%rcx
    3b03:	48 8d 45 d7          	lea    -0x29(%rbp),%rax
    3b07:	48 89 c2             	mov    %rax,%rdx
    3b0a:	48 89 ce             	mov    %rcx,%rsi
    3b0d:	48 89 df             	mov    %rbx,%rdi
    3b10:	e8 67 03 00 00       	callq  3e7c <_ZNSt12_Vector_baseIN8Debugger9addrRangeESaIS1_EEC1EmRKS2_>
    3b15:	48 8d 45 d7          	lea    -0x29(%rbp),%rax
    3b19:	48 89 c7             	mov    %rax,%rdi
    3b1c:	e8 07 ff ff ff       	callq  3a28 <_ZNSaIN8Debugger9addrRangeEED1Ev>
    3b21:	48 8b 45 c8          	mov    -0x38(%rbp),%rax
    3b25:	48 89 c7             	mov    %rax,%rdi
    3b28:	e8 39 02 00 00       	callq  3d66 <_ZNSt12_Vector_baseIN8Debugger9addrRangeESaIS1_EE19_M_get_Tp_allocatorEv>
    3b2d:	49 89 c5             	mov    %rax,%r13
    3b30:	48 8b 45 c8          	mov    -0x38(%rbp),%rax
    3b34:	48 8b 18             	mov    (%rax),%rbx
    3b37:	48 8b 45 c0          	mov    -0x40(%rbp),%rax
    3b3b:	48 89 c7             	mov    %rax,%rdi
    3b3e:	e8 f7 03 00 00       	callq  3f3a <_ZNKSt6vectorIN8Debugger9addrRangeESaIS1_EE3endEv>
    3b43:	49 89 c4             	mov    %rax,%r12
    3b46:	48 8b 45 c0          	mov    -0x40(%rbp),%rax
    3b4a:	48 89 c7             	mov    %rax,%rdi
    3b4d:	e8 90 03 00 00       	callq  3ee2 <_ZNKSt6vectorIN8Debugger9addrRangeESaIS1_EE5beginEv>
    3b52:	4c 89 e9             	mov    %r13,%rcx
    3b55:	48 89 da             	mov    %rbx,%rdx
    3b58:	4c 89 e6             	mov    %r12,%rsi
    3b5b:	48 89 c7             	mov    %rax,%rdi
    3b5e:	e8 2f 04 00 00       	callq  3f92 <_ZSt22__uninitialized_copy_aIN9__gnu_cxx17__normal_iteratorIPKN8Debugger9addrRangeESt6vectorIS3_SaIS3_EEEEPS3_S3_ET0_T_SC_SB_RSaIT1_E>
    3b63:	48 8b 55 c8          	mov    -0x38(%rbp),%rdx
    3b67:	48 89 42 08          	mov    %rax,0x8(%rdx)
    3b6b:	90                   	nop
    3b6c:	48 8b 45 d8          	mov    -0x28(%rbp),%rax
    3b70:	64 48 33 04 25 28 00 	xor    %fs:0x28,%rax
    3b77:	00 00 
    3b79:	74 43                	je     3bbe <_ZNSt6vectorIN8Debugger9addrRangeESaIS1_EEC1ERKS3_+0x114>
    3b7b:	eb 3c                	jmp    3bb9 <_ZNSt6vectorIN8Debugger9addrRangeESaIS1_EEC1ERKS3_+0x10f>
    3b7d:	f3 0f 1e fa          	endbr64 
    3b81:	48 89 c3             	mov    %rax,%rbx
    3b84:	48 8d 45 d7          	lea    -0x29(%rbp),%rax
    3b88:	48 89 c7             	mov    %rax,%rdi
    3b8b:	e8 98 fe ff ff       	callq  3a28 <_ZNSaIN8Debugger9addrRangeEED1Ev>
    3b90:	48 89 d8             	mov    %rbx,%rax
    3b93:	48 89 c7             	mov    %rax,%rdi
    3b96:	e8 25 eb ff ff       	callq  26c0 <_Unwind_Resume@plt>
    3b9b:	f3 0f 1e fa          	endbr64 
    3b9f:	48 89 c3             	mov    %rax,%rbx
    3ba2:	48 8b 45 c8          	mov    -0x38(%rbp),%rax
    3ba6:	48 89 c7             	mov    %rax,%rdi
    3ba9:	e8 9a fe ff ff       	callq  3a48 <_ZNSt12_Vector_baseIN8Debugger9addrRangeESaIS1_EED1Ev>
    3bae:	48 89 d8             	mov    %rbx,%rax
    3bb1:	48 89 c7             	mov    %rax,%rdi
    3bb4:	e8 07 eb ff ff       	callq  26c0 <_Unwind_Resume@plt>
    3bb9:	e8 02 ea ff ff       	callq  25c0 <__stack_chk_fail@plt>
    3bbe:	48 83 c4 28          	add    $0x28,%rsp
    3bc2:	5b                   	pop    %rbx
    3bc3:	41 5c                	pop    %r12
    3bc5:	41 5d                	pop    %r13
    3bc7:	5d                   	pop    %rbp
    3bc8:	c3                   	retq   
    3bc9:	90                   	nop

0000000000003bca <_ZNSt12_Vector_baseIN8Debugger9addrRangeESaIS1_EE12_Vector_implC1Ev>:
    3bca:	f3 0f 1e fa          	endbr64 
    3bce:	55                   	push   %rbp
    3bcf:	48 89 e5             	mov    %rsp,%rbp
    3bd2:	48 83 ec 10          	sub    $0x10,%rsp
    3bd6:	48 89 7d f8          	mov    %rdi,-0x8(%rbp)
    3bda:	48 8b 45 f8          	mov    -0x8(%rbp),%rax
    3bde:	48 89 c7             	mov    %rax,%rdi
    3be1:	e8 e2 03 00 00       	callq  3fc8 <_ZNSaIN8Debugger9addrRangeEEC1Ev>
    3be6:	48 8b 45 f8          	mov    -0x8(%rbp),%rax
    3bea:	48 89 c7             	mov    %rax,%rdi
    3bed:	e8 f6 03 00 00       	callq  3fe8 <_ZNSt12_Vector_baseIN8Debugger9addrRangeESaIS1_EE17_Vector_impl_dataC1Ev>
    3bf2:	90                   	nop
    3bf3:	c9                   	leaveq 
    3bf4:	c3                   	retq   
    3bf5:	90                   	nop

0000000000003bf6 <_ZNSt6vectorIN8Debugger9addrRangeESaIS1_EE9push_backERKS1_>:
    3bf6:	f3 0f 1e fa          	endbr64 
    3bfa:	55                   	push   %rbp
    3bfb:	48 89 e5             	mov    %rsp,%rbp
    3bfe:	48 83 ec 10          	sub    $0x10,%rsp
    3c02:	48 89 7d f8          	mov    %rdi,-0x8(%rbp)
    3c06:	48 89 75 f0          	mov    %rsi,-0x10(%rbp)
    3c0a:	48 8b 45 f8          	mov    -0x8(%rbp),%rax
    3c0e:	48 8b 50 08          	mov    0x8(%rax),%rdx
    3c12:	48 8b 45 f8          	mov    -0x8(%rbp),%rax
    3c16:	48 8b 40 10          	mov    0x10(%rax),%rax
    3c1a:	48 39 c2             	cmp    %rax,%rdx
    3c1d:	74 34                	je     3c53 <_ZNSt6vectorIN8Debugger9addrRangeESaIS1_EE9push_backERKS1_+0x5d>
    3c1f:	48 8b 45 f8          	mov    -0x8(%rbp),%rax
    3c23:	48 8b 48 08          	mov    0x8(%rax),%rcx
    3c27:	48 8b 45 f8          	mov    -0x8(%rbp),%rax
    3c2b:	48 8b 55 f0          	mov    -0x10(%rbp),%rdx
    3c2f:	48 89 ce             	mov    %rcx,%rsi
    3c32:	48 89 c7             	mov    %rax,%rdi
    3c35:	e8 e0 03 00 00       	callq  401a <_ZNSt16allocator_traitsISaIN8Debugger9addrRangeEEE9constructIS1_JRKS1_EEEvRS2_PT_DpOT0_>
    3c3a:	48 8b 45 f8          	mov    -0x8(%rbp),%rax
    3c3e:	48 8b 40 08          	mov    0x8(%rax),%rax
    3c42:	48 8d 90 a4 00 00 00 	lea    0xa4(%rax),%rdx
    3c49:	48 8b 45 f8          	mov    -0x8(%rbp),%rax
    3c4d:	48 89 50 08          	mov    %rdx,0x8(%rax)
    3c51:	eb 22                	jmp    3c75 <_ZNSt6vectorIN8Debugger9addrRangeESaIS1_EE9push_backERKS1_+0x7f>
    3c53:	48 8b 45 f8          	mov    -0x8(%rbp),%rax
    3c57:	48 89 c7             	mov    %rax,%rdi
    3c5a:	e8 f9 03 00 00       	callq  4058 <_ZNSt6vectorIN8Debugger9addrRangeESaIS1_EE3endEv>
    3c5f:	48 89 c1             	mov    %rax,%rcx
    3c62:	48 8b 55 f0          	mov    -0x10(%rbp),%rdx
    3c66:	48 8b 45 f8          	mov    -0x8(%rbp),%rax
    3c6a:	48 89 ce             	mov    %rcx,%rsi
    3c6d:	48 89 c7             	mov    %rax,%rdi
    3c70:	e8 79 04 00 00       	callq  40ee <_ZNSt6vectorIN8Debugger9addrRangeESaIS1_EE17_M_realloc_insertIJRKS1_EEEvN9__gnu_cxx17__normal_iteratorIPS1_S3_EEDpOT_>
    3c75:	90                   	nop
    3c76:	c9                   	leaveq 
    3c77:	c3                   	retq   

0000000000003c78 <_ZNKSt6vectorIN8Debugger9addrRangeESaIS1_EE4sizeEv>:
    3c78:	f3 0f 1e fa          	endbr64 
    3c7c:	55                   	push   %rbp
    3c7d:	48 89 e5             	mov    %rsp,%rbp
    3c80:	48 89 7d f8          	mov    %rdi,-0x8(%rbp)
    3c84:	48 8b 45 f8          	mov    -0x8(%rbp),%rax
    3c88:	48 8b 50 08          	mov    0x8(%rax),%rdx
    3c8c:	48 8b 45 f8          	mov    -0x8(%rbp),%rax
    3c90:	48 8b 00             	mov    (%rax),%rax
    3c93:	48 29 c2             	sub    %rax,%rdx
    3c96:	48 89 d0             	mov    %rdx,%rax
    3c99:	48 c1 f8 02          	sar    $0x2,%rax
    3c9d:	48 89 c2             	mov    %rax,%rdx
    3ca0:	48 b8 19 9c 8f c1 f9 	movabs $0x8f9c18f9c18f9c19,%rax
    3ca7:	18 9c 8f 
    3caa:	48 0f af c2          	imul   %rdx,%rax
    3cae:	5d                   	pop    %rbp
    3caf:	c3                   	retq   

0000000000003cb0 <_ZNSt6vectorIN8Debugger9addrRangeESaIS1_EEixEm>:
    3cb0:	f3 0f 1e fa          	endbr64 
    3cb4:	55                   	push   %rbp
    3cb5:	48 89 e5             	mov    %rsp,%rbp
    3cb8:	48 89 7d f8          	mov    %rdi,-0x8(%rbp)
    3cbc:	48 89 75 f0          	mov    %rsi,-0x10(%rbp)
    3cc0:	48 8b 45 f8          	mov    -0x8(%rbp),%rax
    3cc4:	48 8b 08             	mov    (%rax),%rcx
    3cc7:	48 8b 55 f0          	mov    -0x10(%rbp),%rdx
    3ccb:	48 89 d0             	mov    %rdx,%rax
    3cce:	48 c1 e0 02          	shl    $0x2,%rax
    3cd2:	48 01 d0             	add    %rdx,%rax
    3cd5:	48 c1 e0 03          	shl    $0x3,%rax
    3cd9:	48 01 d0             	add    %rdx,%rax
    3cdc:	48 c1 e0 02          	shl    $0x2,%rax
    3ce0:	48 01 c8             	add    %rcx,%rax
    3ce3:	5d                   	pop    %rbp
    3ce4:	c3                   	retq   
    3ce5:	90                   	nop

0000000000003ce6 <_ZNSt7__cxx1112basic_stringIcSt11char_traitsIcESaIcEEC1IPcvEET_S7_RKS3_>:
    3ce6:	f3 0f 1e fa          	endbr64 
    3cea:	55                   	push   %rbp
    3ceb:	48 89 e5             	mov    %rsp,%rbp
    3cee:	53                   	push   %rbx
    3cef:	48 83 ec 28          	sub    $0x28,%rsp
    3cf3:	48 89 7d e8          	mov    %rdi,-0x18(%rbp)
    3cf7:	48 89 75 e0          	mov    %rsi,-0x20(%rbp)
    3cfb:	48 89 55 d8          	mov    %rdx,-0x28(%rbp)
    3cff:	48 89 4d d0          	mov    %rcx,-0x30(%rbp)
    3d03:	48 8b 5d e8          	mov    -0x18(%rbp),%rbx
    3d07:	48 8b 45 e8          	mov    -0x18(%rbp),%rax
    3d0b:	48 89 c7             	mov    %rax,%rdi
    3d0e:	e8 9d e7 ff ff       	callq  24b0 <_ZNSt7__cxx1112basic_stringIcSt11char_traitsIcESaIcEE13_M_local_dataEv@plt>
    3d13:	48 89 c1             	mov    %rax,%rcx
    3d16:	48 8b 45 d0          	mov    -0x30(%rbp),%rax
    3d1a:	48 89 c2             	mov    %rax,%rdx
    3d1d:	48 89 ce             	mov    %rcx,%rsi
    3d20:	48 89 df             	mov    %rbx,%rdi
    3d23:	e8 68 e8 ff ff       	callq  2590 <_ZNSt7__cxx1112basic_stringIcSt11char_traitsIcESaIcEE12_Alloc_hiderC1EPcRKS3_@plt>
    3d28:	48 8b 55 d8          	mov    -0x28(%rbp),%rdx
    3d2c:	48 8b 4d e0          	mov    -0x20(%rbp),%rcx
    3d30:	48 8b 45 e8          	mov    -0x18(%rbp),%rax
    3d34:	48 89 ce             	mov    %rcx,%rsi
    3d37:	48 89 c7             	mov    %rax,%rdi
    3d3a:	e8 f1 06 00 00       	callq  4430 <_ZNSt7__cxx1112basic_stringIcSt11char_traitsIcESaIcEE12_M_constructIPcEEvT_S7_>
    3d3f:	eb 1e                	jmp    3d5f <_ZNSt7__cxx1112basic_stringIcSt11char_traitsIcESaIcEEC1IPcvEET_S7_RKS3_+0x79>
    3d41:	f3 0f 1e fa          	endbr64 
    3d45:	48 89 c3             	mov    %rax,%rbx
    3d48:	48 8b 45 e8          	mov    -0x18(%rbp),%rax
    3d4c:	48 89 c7             	mov    %rax,%rdi
    3d4f:	e8 3e fc ff ff       	callq  3992 <_ZNSt7__cxx1112basic_stringIcSt11char_traitsIcESaIcEE12_Alloc_hiderD1Ev>
    3d54:	48 89 d8             	mov    %rbx,%rax
    3d57:	48 89 c7             	mov    %rax,%rdi
    3d5a:	e8 61 e9 ff ff       	callq  26c0 <_Unwind_Resume@plt>
    3d5f:	48 83 c4 28          	add    $0x28,%rsp
    3d63:	5b                   	pop    %rbx
    3d64:	5d                   	pop    %rbp
    3d65:	c3                   	retq   

0000000000003d66 <_ZNSt12_Vector_baseIN8Debugger9addrRangeESaIS1_EE19_M_get_Tp_allocatorEv>:
    3d66:	f3 0f 1e fa          	endbr64 
    3d6a:	55                   	push   %rbp
    3d6b:	48 89 e5             	mov    %rsp,%rbp
    3d6e:	48 89 7d f8          	mov    %rdi,-0x8(%rbp)
    3d72:	48 8b 45 f8          	mov    -0x8(%rbp),%rax
    3d76:	5d                   	pop    %rbp
    3d77:	c3                   	retq   

0000000000003d78 <_ZSt8_DestroyIPN8Debugger9addrRangeES1_EvT_S3_RSaIT0_E>:
    3d78:	f3 0f 1e fa          	endbr64 
    3d7c:	55                   	push   %rbp
    3d7d:	48 89 e5             	mov    %rsp,%rbp
    3d80:	48 83 ec 20          	sub    $0x20,%rsp
    3d84:	48 89 7d f8          	mov    %rdi,-0x8(%rbp)
    3d88:	48 89 75 f0          	mov    %rsi,-0x10(%rbp)
    3d8c:	48 89 55 e8          	mov    %rdx,-0x18(%rbp)
    3d90:	48 8b 55 f0          	mov    -0x10(%rbp),%rdx
    3d94:	48 8b 45 f8          	mov    -0x8(%rbp),%rax
    3d98:	48 89 d6             	mov    %rdx,%rsi
    3d9b:	48 89 c7             	mov    %rax,%rdi
    3d9e:	e8 e2 06 00 00       	callq  4485 <_ZSt8_DestroyIPN8Debugger9addrRangeEEvT_S3_>
    3da3:	90                   	nop
    3da4:	c9                   	leaveq 
    3da5:	c3                   	retq   

0000000000003da6 <_ZNSaIN8Debugger9addrRangeEEC1ERKS1_>:
    3da6:	f3 0f 1e fa          	endbr64 
    3daa:	55                   	push   %rbp
    3dab:	48 89 e5             	mov    %rsp,%rbp
    3dae:	48 83 ec 10          	sub    $0x10,%rsp
    3db2:	48 89 7d f8          	mov    %rdi,-0x8(%rbp)
    3db6:	48 89 75 f0          	mov    %rsi,-0x10(%rbp)
    3dba:	48 8b 55 f0          	mov    -0x10(%rbp),%rdx
    3dbe:	48 8b 45 f8          	mov    -0x8(%rbp),%rax
    3dc2:	48 89 d6             	mov    %rdx,%rsi
    3dc5:	48 89 c7             	mov    %rax,%rdi
    3dc8:	e8 e3 06 00 00       	callq  44b0 <_ZN9__gnu_cxx13new_allocatorIN8Debugger9addrRangeEEC1ERKS3_>
    3dcd:	90                   	nop
    3dce:	c9                   	leaveq 
    3dcf:	c3                   	retq   

0000000000003dd0 <_ZN9__gnu_cxx13new_allocatorIN8Debugger9addrRangeEED1Ev>:
    3dd0:	f3 0f 1e fa          	endbr64 
    3dd4:	55                   	push   %rbp
    3dd5:	48 89 e5             	mov    %rsp,%rbp
    3dd8:	48 89 7d f8          	mov    %rdi,-0x8(%rbp)
    3ddc:	90                   	nop
    3ddd:	5d                   	pop    %rbp
    3dde:	c3                   	retq   
    3ddf:	90                   	nop

0000000000003de0 <_ZNSt12_Vector_baseIN8Debugger9addrRangeESaIS1_EE13_M_deallocateEPS1_m>:
    3de0:	f3 0f 1e fa          	endbr64 
    3de4:	55                   	push   %rbp
    3de5:	48 89 e5             	mov    %rsp,%rbp
    3de8:	48 83 ec 20          	sub    $0x20,%rsp
    3dec:	48 89 7d f8          	mov    %rdi,-0x8(%rbp)
    3df0:	48 89 75 f0          	mov    %rsi,-0x10(%rbp)
    3df4:	48 89 55 e8          	mov    %rdx,-0x18(%rbp)
    3df8:	48 83 7d f0 00       	cmpq   $0x0,-0x10(%rbp)
    3dfd:	74 17                	je     3e16 <_ZNSt12_Vector_baseIN8Debugger9addrRangeESaIS1_EE13_M_deallocateEPS1_m+0x36>
    3dff:	48 8b 45 f8          	mov    -0x8(%rbp),%rax
    3e03:	48 8b 55 e8          	mov    -0x18(%rbp),%rdx
    3e07:	48 8b 4d f0          	mov    -0x10(%rbp),%rcx
    3e0b:	48 89 ce             	mov    %rcx,%rsi
    3e0e:	48 89 c7             	mov    %rax,%rdi
    3e11:	e8 ad 06 00 00       	callq  44c3 <_ZNSt16allocator_traitsISaIN8Debugger9addrRangeEEE10deallocateERS2_PS1_m>
    3e16:	90                   	nop
    3e17:	c9                   	leaveq 
    3e18:	c3                   	retq   

0000000000003e19 <_ZN9__gnu_cxx14__alloc_traitsISaIN8Debugger9addrRangeEES2_E17_S_select_on_copyERKS3_>:
    3e19:	f3 0f 1e fa          	endbr64 
    3e1d:	55                   	push   %rbp
    3e1e:	48 89 e5             	mov    %rsp,%rbp
    3e21:	48 83 ec 20          	sub    $0x20,%rsp
    3e25:	48 89 7d e8          	mov    %rdi,-0x18(%rbp)
    3e29:	48 89 75 e0          	mov    %rsi,-0x20(%rbp)
    3e2d:	64 48 8b 04 25 28 00 	mov    %fs:0x28,%rax
    3e34:	00 00 
    3e36:	48 89 45 f8          	mov    %rax,-0x8(%rbp)
    3e3a:	31 c0                	xor    %eax,%eax
    3e3c:	48 8b 45 e8          	mov    -0x18(%rbp),%rax
    3e40:	48 8b 55 e0          	mov    -0x20(%rbp),%rdx
    3e44:	48 89 d6             	mov    %rdx,%rsi
    3e47:	48 89 c7             	mov    %rax,%rdi
    3e4a:	e8 a6 06 00 00       	callq  44f5 <_ZNSt16allocator_traitsISaIN8Debugger9addrRangeEEE37select_on_container_copy_constructionERKS2_>
    3e4f:	48 8b 45 f8          	mov    -0x8(%rbp),%rax
    3e53:	64 48 33 04 25 28 00 	xor    %fs:0x28,%rax
    3e5a:	00 00 
    3e5c:	74 05                	je     3e63 <_ZN9__gnu_cxx14__alloc_traitsISaIN8Debugger9addrRangeEES2_E17_S_select_on_copyERKS3_+0x4a>
    3e5e:	e8 5d e7 ff ff       	callq  25c0 <__stack_chk_fail@plt>
    3e63:	48 8b 45 e8          	mov    -0x18(%rbp),%rax
    3e67:	c9                   	leaveq 
    3e68:	c3                   	retq   
    3e69:	90                   	nop

0000000000003e6a <_ZNKSt12_Vector_baseIN8Debugger9addrRangeESaIS1_EE19_M_get_Tp_allocatorEv>:
    3e6a:	f3 0f 1e fa          	endbr64 
    3e6e:	55                   	push   %rbp
    3e6f:	48 89 e5             	mov    %rsp,%rbp
    3e72:	48 89 7d f8          	mov    %rdi,-0x8(%rbp)
    3e76:	48 8b 45 f8          	mov    -0x8(%rbp),%rax
    3e7a:	5d                   	pop    %rbp
    3e7b:	c3                   	retq   

0000000000003e7c <_ZNSt12_Vector_baseIN8Debugger9addrRangeESaIS1_EEC1EmRKS2_>:
    3e7c:	f3 0f 1e fa          	endbr64 
    3e80:	55                   	push   %rbp
    3e81:	48 89 e5             	mov    %rsp,%rbp
    3e84:	53                   	push   %rbx
    3e85:	48 83 ec 28          	sub    $0x28,%rsp
    3e89:	48 89 7d e8          	mov    %rdi,-0x18(%rbp)
    3e8d:	48 89 75 e0          	mov    %rsi,-0x20(%rbp)
    3e91:	48 89 55 d8          	mov    %rdx,-0x28(%rbp)
    3e95:	48 8b 45 e8          	mov    -0x18(%rbp),%rax
    3e99:	48 8b 55 d8          	mov    -0x28(%rbp),%rdx
    3e9d:	48 89 d6             	mov    %rdx,%rsi
    3ea0:	48 89 c7             	mov    %rax,%rdi
    3ea3:	e8 7a 06 00 00       	callq  4522 <_ZNSt12_Vector_baseIN8Debugger9addrRangeESaIS1_EE12_Vector_implC1ERKS2_>
    3ea8:	48 8b 55 e0          	mov    -0x20(%rbp),%rdx
    3eac:	48 8b 45 e8          	mov    -0x18(%rbp),%rax
    3eb0:	48 89 d6             	mov    %rdx,%rsi
    3eb3:	48 89 c7             	mov    %rax,%rdi
    3eb6:	e8 9d 06 00 00       	callq  4558 <_ZNSt12_Vector_baseIN8Debugger9addrRangeESaIS1_EE17_M_create_storageEm>
    3ebb:	eb 1e                	jmp    3edb <_ZNSt12_Vector_baseIN8Debugger9addrRangeESaIS1_EEC1EmRKS2_+0x5f>
    3ebd:	f3 0f 1e fa          	endbr64 
    3ec1:	48 89 c3             	mov    %rax,%rbx
    3ec4:	48 8b 45 e8          	mov    -0x18(%rbp),%rax
    3ec8:	48 89 c7             	mov    %rax,%rdi
    3ecb:	e8 f6 ea ff ff       	callq  29c6 <_ZNSt12_Vector_baseIN8Debugger9addrRangeESaIS1_EE12_Vector_implD1Ev>
    3ed0:	48 89 d8             	mov    %rbx,%rax
    3ed3:	48 89 c7             	mov    %rax,%rdi
    3ed6:	e8 e5 e7 ff ff       	callq  26c0 <_Unwind_Resume@plt>
    3edb:	48 83 c4 28          	add    $0x28,%rsp
    3edf:	5b                   	pop    %rbx
    3ee0:	5d                   	pop    %rbp
    3ee1:	c3                   	retq   

0000000000003ee2 <_ZNKSt6vectorIN8Debugger9addrRangeESaIS1_EE5beginEv>:
    3ee2:	f3 0f 1e fa          	endbr64 
    3ee6:	55                   	push   %rbp
    3ee7:	48 89 e5             	mov    %rsp,%rbp
    3eea:	48 83 ec 30          	sub    $0x30,%rsp
    3eee:	48 89 7d d8          	mov    %rdi,-0x28(%rbp)
    3ef2:	64 48 8b 04 25 28 00 	mov    %fs:0x28,%rax
    3ef9:	00 00 
    3efb:	48 89 45 f8          	mov    %rax,-0x8(%rbp)
    3eff:	31 c0                	xor    %eax,%eax
    3f01:	48 8b 45 d8          	mov    -0x28(%rbp),%rax
    3f05:	48 8b 00             	mov    (%rax),%rax
    3f08:	48 89 45 e8          	mov    %rax,-0x18(%rbp)
    3f0c:	48 8d 55 e8          	lea    -0x18(%rbp),%rdx
    3f10:	48 8d 45 f0          	lea    -0x10(%rbp),%rax
    3f14:	48 89 d6             	mov    %rdx,%rsi
    3f17:	48 89 c7             	mov    %rax,%rdi
    3f1a:	e8 a5 06 00 00       	callq  45c4 <_ZN9__gnu_cxx17__normal_iteratorIPKN8Debugger9addrRangeESt6vectorIS2_SaIS2_EEEC1ERKS4_>
    3f1f:	48 8b 45 f0          	mov    -0x10(%rbp),%rax
    3f23:	48 8b 4d f8          	mov    -0x8(%rbp),%rcx
    3f27:	64 48 33 0c 25 28 00 	xor    %fs:0x28,%rcx
    3f2e:	00 00 
    3f30:	74 05                	je     3f37 <_ZNKSt6vectorIN8Debugger9addrRangeESaIS1_EE5beginEv+0x55>
    3f32:	e8 89 e6 ff ff       	callq  25c0 <__stack_chk_fail@plt>
    3f37:	c9                   	leaveq 
    3f38:	c3                   	retq   
    3f39:	90                   	nop

0000000000003f3a <_ZNKSt6vectorIN8Debugger9addrRangeESaIS1_EE3endEv>:
    3f3a:	f3 0f 1e fa          	endbr64 
    3f3e:	55                   	push   %rbp
    3f3f:	48 89 e5             	mov    %rsp,%rbp
    3f42:	48 83 ec 30          	sub    $0x30,%rsp
    3f46:	48 89 7d d8          	mov    %rdi,-0x28(%rbp)
    3f4a:	64 48 8b 04 25 28 00 	mov    %fs:0x28,%rax
    3f51:	00 00 
    3f53:	48 89 45 f8          	mov    %rax,-0x8(%rbp)
    3f57:	31 c0                	xor    %eax,%eax
    3f59:	48 8b 45 d8          	mov    -0x28(%rbp),%rax
    3f5d:	48 8b 40 08          	mov    0x8(%rax),%rax
    3f61:	48 89 45 e8          	mov    %rax,-0x18(%rbp)
    3f65:	48 8d 55 e8          	lea    -0x18(%rbp),%rdx
    3f69:	48 8d 45 f0          	lea    -0x10(%rbp),%rax
    3f6d:	48 89 d6             	mov    %rdx,%rsi
    3f70:	48 89 c7             	mov    %rax,%rdi
    3f73:	e8 4c 06 00 00       	callq  45c4 <_ZN9__gnu_cxx17__normal_iteratorIPKN8Debugger9addrRangeESt6vectorIS2_SaIS2_EEEC1ERKS4_>
    3f78:	48 8b 45 f0          	mov    -0x10(%rbp),%rax
    3f7c:	48 8b 4d f8          	mov    -0x8(%rbp),%rcx
    3f80:	64 48 33 0c 25 28 00 	xor    %fs:0x28,%rcx
    3f87:	00 00 
    3f89:	74 05                	je     3f90 <_ZNKSt6vectorIN8Debugger9addrRangeESaIS1_EE3endEv+0x56>
    3f8b:	e8 30 e6 ff ff       	callq  25c0 <__stack_chk_fail@plt>
    3f90:	c9                   	leaveq 
    3f91:	c3                   	retq   

0000000000003f92 <_ZSt22__uninitialized_copy_aIN9__gnu_cxx17__normal_iteratorIPKN8Debugger9addrRangeESt6vectorIS3_SaIS3_EEEEPS3_S3_ET0_T_SC_SB_RSaIT1_E>:
    3f92:	f3 0f 1e fa          	endbr64 
    3f96:	55                   	push   %rbp
    3f97:	48 89 e5             	mov    %rsp,%rbp
    3f9a:	48 83 ec 20          	sub    $0x20,%rsp
    3f9e:	48 89 7d f8          	mov    %rdi,-0x8(%rbp)
    3fa2:	48 89 75 f0          	mov    %rsi,-0x10(%rbp)
    3fa6:	48 89 55 e8          	mov    %rdx,-0x18(%rbp)
    3faa:	48 89 4d e0          	mov    %rcx,-0x20(%rbp)
    3fae:	48 8b 55 e8          	mov    -0x18(%rbp),%rdx
    3fb2:	48 8b 4d f0          	mov    -0x10(%rbp),%rcx
    3fb6:	48 8b 45 f8          	mov    -0x8(%rbp),%rax
    3fba:	48 89 ce             	mov    %rcx,%rsi
    3fbd:	48 89 c7             	mov    %rax,%rdi
    3fc0:	e8 20 06 00 00       	callq  45e5 <_ZSt18uninitialized_copyIN9__gnu_cxx17__normal_iteratorIPKN8Debugger9addrRangeESt6vectorIS3_SaIS3_EEEEPS3_ET0_T_SC_SB_>
    3fc5:	c9                   	leaveq 
    3fc6:	c3                   	retq   
    3fc7:	90                   	nop

0000000000003fc8 <_ZNSaIN8Debugger9addrRangeEEC1Ev>:
    3fc8:	f3 0f 1e fa          	endbr64 
    3fcc:	55                   	push   %rbp
    3fcd:	48 89 e5             	mov    %rsp,%rbp
    3fd0:	48 83 ec 10          	sub    $0x10,%rsp
    3fd4:	48 89 7d f8          	mov    %rdi,-0x8(%rbp)
    3fd8:	48 8b 45 f8          	mov    -0x8(%rbp),%rax
    3fdc:	48 89 c7             	mov    %rax,%rdi
    3fdf:	e8 36 06 00 00       	callq  461a <_ZN9__gnu_cxx13new_allocatorIN8Debugger9addrRangeEEC1Ev>
    3fe4:	90                   	nop
    3fe5:	c9                   	leaveq 
    3fe6:	c3                   	retq   
    3fe7:	90                   	nop

0000000000003fe8 <_ZNSt12_Vector_baseIN8Debugger9addrRangeESaIS1_EE17_Vector_impl_dataC1Ev>:
    3fe8:	f3 0f 1e fa          	endbr64 
    3fec:	55                   	push   %rbp
    3fed:	48 89 e5             	mov    %rsp,%rbp
    3ff0:	48 89 7d f8          	mov    %rdi,-0x8(%rbp)
    3ff4:	48 8b 45 f8          	mov    -0x8(%rbp),%rax
    3ff8:	48 c7 00 00 00 00 00 	movq   $0x0,(%rax)
    3fff:	48 8b 45 f8          	mov    -0x8(%rbp),%rax
    4003:	48 c7 40 08 00 00 00 	movq   $0x0,0x8(%rax)
    400a:	00 
    400b:	48 8b 45 f8          	mov    -0x8(%rbp),%rax
    400f:	48 c7 40 10 00 00 00 	movq   $0x0,0x10(%rax)
    4016:	00 
    4017:	90                   	nop
    4018:	5d                   	pop    %rbp
    4019:	c3                   	retq   

000000000000401a <_ZNSt16allocator_traitsISaIN8Debugger9addrRangeEEE9constructIS1_JRKS1_EEEvRS2_PT_DpOT0_>:
    401a:	f3 0f 1e fa          	endbr64 
    401e:	55                   	push   %rbp
    401f:	48 89 e5             	mov    %rsp,%rbp
    4022:	48 83 ec 20          	sub    $0x20,%rsp
    4026:	48 89 7d f8          	mov    %rdi,-0x8(%rbp)
    402a:	48 89 75 f0          	mov    %rsi,-0x10(%rbp)
    402e:	48 89 55 e8          	mov    %rdx,-0x18(%rbp)
    4032:	48 8b 45 e8          	mov    -0x18(%rbp),%rax
    4036:	48 89 c7             	mov    %rax,%rdi
    4039:	e8 eb 05 00 00       	callq  4629 <_ZSt7forwardIRKN8Debugger9addrRangeEEOT_RNSt16remove_referenceIS4_E4typeE>
    403e:	48 89 c2             	mov    %rax,%rdx
    4041:	48 8b 4d f0          	mov    -0x10(%rbp),%rcx
    4045:	48 8b 45 f8          	mov    -0x8(%rbp),%rax
    4049:	48 89 ce             	mov    %rcx,%rsi
    404c:	48 89 c7             	mov    %rax,%rdi
    404f:	e8 e8 05 00 00       	callq  463c <_ZN9__gnu_cxx13new_allocatorIN8Debugger9addrRangeEE9constructIS2_JRKS2_EEEvPT_DpOT0_>
    4054:	90                   	nop
    4055:	c9                   	leaveq 
    4056:	c3                   	retq   
    4057:	90                   	nop

0000000000004058 <_ZNSt6vectorIN8Debugger9addrRangeESaIS1_EE3endEv>:
    4058:	f3 0f 1e fa          	endbr64 
    405c:	55                   	push   %rbp
    405d:	48 89 e5             	mov    %rsp,%rbp
    4060:	48 83 ec 20          	sub    $0x20,%rsp
    4064:	48 89 7d e8          	mov    %rdi,-0x18(%rbp)
    4068:	64 48 8b 04 25 28 00 	mov    %fs:0x28,%rax
    406f:	00 00 
    4071:	48 89 45 f8          	mov    %rax,-0x8(%rbp)
    4075:	31 c0                	xor    %eax,%eax
    4077:	48 8b 45 e8          	mov    -0x18(%rbp),%rax
    407b:	48 8d 50 08          	lea    0x8(%rax),%rdx
    407f:	48 8d 45 f0          	lea    -0x10(%rbp),%rax
    4083:	48 89 d6             	mov    %rdx,%rsi
    4086:	48 89 c7             	mov    %rax,%rdi
    4089:	e8 b2 06 00 00       	callq  4740 <_ZN9__gnu_cxx17__normal_iteratorIPN8Debugger9addrRangeESt6vectorIS2_SaIS2_EEEC1ERKS3_>
    408e:	48 8b 45 f0          	mov    -0x10(%rbp),%rax
    4092:	48 8b 4d f8          	mov    -0x8(%rbp),%rcx
    4096:	64 48 33 0c 25 28 00 	xor    %fs:0x28,%rcx
    409d:	00 00 
    409f:	74 05                	je     40a6 <_ZNSt6vectorIN8Debugger9addrRangeESaIS1_EE3endEv+0x4e>
    40a1:	e8 1a e5 ff ff       	callq  25c0 <__stack_chk_fail@plt>
    40a6:	c9                   	leaveq 
    40a7:	c3                   	retq   

00000000000040a8 <_ZNSt6vectorIN8Debugger9addrRangeESaIS1_EE15_S_use_relocateEv>:
    40a8:	f3 0f 1e fa          	endbr64 
    40ac:	55                   	push   %rbp
    40ad:	48 89 e5             	mov    %rsp,%rbp
    40b0:	48 83 ec 10          	sub    $0x10,%rsp
    40b4:	64 48 8b 04 25 28 00 	mov    %fs:0x28,%rax
    40bb:	00 00 
    40bd:	48 89 45 f8          	mov    %rax,-0x8(%rbp)
    40c1:	31 c0                	xor    %eax,%eax
    40c3:	e8 16 00 00 00       	callq  40de <_ZNSt6vectorIN8Debugger9addrRangeESaIS1_EE19_S_nothrow_relocateESt17integral_constantIbLb1EE>
    40c8:	48 8b 55 f8          	mov    -0x8(%rbp),%rdx
    40cc:	64 48 33 14 25 28 00 	xor    %fs:0x28,%rdx
    40d3:	00 00 
    40d5:	74 05                	je     40dc <_ZNSt6vectorIN8Debugger9addrRangeESaIS1_EE15_S_use_relocateEv+0x34>
    40d7:	e8 e4 e4 ff ff       	callq  25c0 <__stack_chk_fail@plt>
    40dc:	c9                   	leaveq 
    40dd:	c3                   	retq   

00000000000040de <_ZNSt6vectorIN8Debugger9addrRangeESaIS1_EE19_S_nothrow_relocateESt17integral_constantIbLb1EE>:
    40de:	f3 0f 1e fa          	endbr64 
    40e2:	55                   	push   %rbp
    40e3:	48 89 e5             	mov    %rsp,%rbp
    40e6:	b8 01 00 00 00       	mov    $0x1,%eax
    40eb:	5d                   	pop    %rbp
    40ec:	c3                   	retq   
    40ed:	90                   	nop

00000000000040ee <_ZNSt6vectorIN8Debugger9addrRangeESaIS1_EE17_M_realloc_insertIJRKS1_EEEvN9__gnu_cxx17__normal_iteratorIPS1_S3_EEDpOT_>:
    40ee:	f3 0f 1e fa          	endbr64 
    40f2:	55                   	push   %rbp
    40f3:	48 89 e5             	mov    %rsp,%rbp
    40f6:	53                   	push   %rbx
    40f7:	48 83 ec 68          	sub    $0x68,%rsp
    40fb:	48 89 7d a8          	mov    %rdi,-0x58(%rbp)
    40ff:	48 89 75 a0          	mov    %rsi,-0x60(%rbp)
    4103:	48 89 55 98          	mov    %rdx,-0x68(%rbp)
    4107:	64 48 8b 04 25 28 00 	mov    %fs:0x28,%rax
    410e:	00 00 
    4110:	48 89 45 e8          	mov    %rax,-0x18(%rbp)
    4114:	31 c0                	xor    %eax,%eax
    4116:	48 8b 45 a8          	mov    -0x58(%rbp),%rax
    411a:	48 8d 15 0d 21 00 00 	lea    0x210d(%rip),%rdx        # 622e <_ZNSt8__detailL19_S_invalid_state_idE+0x17e>
    4121:	be 01 00 00 00       	mov    $0x1,%esi
    4126:	48 89 c7             	mov    %rax,%rdi
    4129:	e8 34 06 00 00       	callq  4762 <_ZNKSt6vectorIN8Debugger9addrRangeESaIS1_EE12_M_check_lenEmPKc>
    412e:	48 89 45 c0          	mov    %rax,-0x40(%rbp)
    4132:	48 8b 45 a8          	mov    -0x58(%rbp),%rax
    4136:	48 8b 00             	mov    (%rax),%rax
    4139:	48 89 45 c8          	mov    %rax,-0x38(%rbp)
    413d:	48 8b 45 a8          	mov    -0x58(%rbp),%rax
    4141:	48 8b 40 08          	mov    0x8(%rax),%rax
    4145:	48 89 45 d0          	mov    %rax,-0x30(%rbp)
    4149:	48 8b 45 a8          	mov    -0x58(%rbp),%rax
    414d:	48 89 c7             	mov    %rax,%rdi
    4150:	e8 fd 06 00 00       	callq  4852 <_ZNSt6vectorIN8Debugger9addrRangeESaIS1_EE5beginEv>
    4155:	48 89 45 b0          	mov    %rax,-0x50(%rbp)
    4159:	48 8d 55 b0          	lea    -0x50(%rbp),%rdx
    415d:	48 8d 45 a0          	lea    -0x60(%rbp),%rax
    4161:	48 89 d6             	mov    %rdx,%rsi
    4164:	48 89 c7             	mov    %rax,%rdi
    4167:	e8 32 07 00 00       	callq  489e <_ZN9__gnu_cxxmiIPN8Debugger9addrRangeESt6vectorIS2_SaIS2_EEEENS_17__normal_iteratorIT_T0_E15difference_typeERKSA_SD_>
    416c:	48 89 45 d8          	mov    %rax,-0x28(%rbp)
    4170:	48 8b 45 a8          	mov    -0x58(%rbp),%rax
    4174:	48 8b 55 c0          	mov    -0x40(%rbp),%rdx
    4178:	48 89 d6             	mov    %rdx,%rsi
    417b:	48 89 c7             	mov    %rax,%rdi
    417e:	e8 71 07 00 00       	callq  48f4 <_ZNSt12_Vector_baseIN8Debugger9addrRangeESaIS1_EE11_M_allocateEm>
    4183:	48 89 45 e0          	mov    %rax,-0x20(%rbp)
    4187:	48 8b 45 e0          	mov    -0x20(%rbp),%rax
    418b:	48 89 45 b8          	mov    %rax,-0x48(%rbp)
    418f:	48 8b 45 98          	mov    -0x68(%rbp),%rax
    4193:	48 89 c7             	mov    %rax,%rdi
    4196:	e8 8e 04 00 00       	callq  4629 <_ZSt7forwardIRKN8Debugger9addrRangeEEOT_RNSt16remove_referenceIS4_E4typeE>
    419b:	48 89 c6             	mov    %rax,%rsi
    419e:	48 8b 55 d8          	mov    -0x28(%rbp),%rdx
    41a2:	48 89 d0             	mov    %rdx,%rax
    41a5:	48 c1 e0 02          	shl    $0x2,%rax
    41a9:	48 01 d0             	add    %rdx,%rax
    41ac:	48 c1 e0 03          	shl    $0x3,%rax
    41b0:	48 01 d0             	add    %rdx,%rax
    41b3:	48 c1 e0 02          	shl    $0x2,%rax
    41b7:	48 89 c2             	mov    %rax,%rdx
    41ba:	48 8b 45 e0          	mov    -0x20(%rbp),%rax
    41be:	48 8d 0c 02          	lea    (%rdx,%rax,1),%rcx
    41c2:	48 8b 45 a8          	mov    -0x58(%rbp),%rax
    41c6:	48 89 f2             	mov    %rsi,%rdx
    41c9:	48 89 ce             	mov    %rcx,%rsi
    41cc:	48 89 c7             	mov    %rax,%rdi
    41cf:	e8 46 fe ff ff       	callq  401a <_ZNSt16allocator_traitsISaIN8Debugger9addrRangeEEE9constructIS1_JRKS1_EEEvRS2_PT_DpOT0_>
    41d4:	48 c7 45 b8 00 00 00 	movq   $0x0,-0x48(%rbp)
    41db:	00 
    41dc:	e8 c7 fe ff ff       	callq  40a8 <_ZNSt6vectorIN8Debugger9addrRangeESaIS1_EE15_S_use_relocateEv>
    41e1:	84 c0                	test   %al,%al
    41e3:	74 74                	je     4259 <_ZNSt6vectorIN8Debugger9addrRangeESaIS1_EE17_M_realloc_insertIJRKS1_EEEvN9__gnu_cxx17__normal_iteratorIPS1_S3_EEDpOT_+0x16b>
    41e5:	48 8b 45 a8          	mov    -0x58(%rbp),%rax
    41e9:	48 89 c7             	mov    %rax,%rdi
    41ec:	e8 75 fb ff ff       	callq  3d66 <_ZNSt12_Vector_baseIN8Debugger9addrRangeESaIS1_EE19_M_get_Tp_allocatorEv>
    41f1:	48 89 c3             	mov    %rax,%rbx
    41f4:	48 8d 45 a0          	lea    -0x60(%rbp),%rax
    41f8:	48 89 c7             	mov    %rax,%rdi
    41fb:	e8 84 07 00 00       	callq  4984 <_ZNK9__gnu_cxx17__normal_iteratorIPN8Debugger9addrRangeESt6vectorIS2_SaIS2_EEE4baseEv>
    4200:	48 8b 30             	mov    (%rax),%rsi
    4203:	48 8b 55 e0          	mov    -0x20(%rbp),%rdx
    4207:	48 8b 45 c8          	mov    -0x38(%rbp),%rax
    420b:	48 89 d9             	mov    %rbx,%rcx
    420e:	48 89 c7             	mov    %rax,%rdi
    4211:	e8 15 07 00 00       	callq  492b <_ZNSt6vectorIN8Debugger9addrRangeESaIS1_EE11_S_relocateEPS1_S4_S4_RS2_>
    4216:	48 89 45 b8          	mov    %rax,-0x48(%rbp)
    421a:	48 81 45 b8 a4 00 00 	addq   $0xa4,-0x48(%rbp)
    4221:	00 
    4222:	48 8b 45 a8          	mov    -0x58(%rbp),%rax
    4226:	48 89 c7             	mov    %rax,%rdi
    4229:	e8 38 fb ff ff       	callq  3d66 <_ZNSt12_Vector_baseIN8Debugger9addrRangeESaIS1_EE19_M_get_Tp_allocatorEv>
    422e:	48 89 c3             	mov    %rax,%rbx
    4231:	48 8d 45 a0          	lea    -0x60(%rbp),%rax
    4235:	48 89 c7             	mov    %rax,%rdi
    4238:	e8 47 07 00 00       	callq  4984 <_ZNK9__gnu_cxx17__normal_iteratorIPN8Debugger9addrRangeESt6vectorIS2_SaIS2_EEE4baseEv>
    423d:	48 8b 00             	mov    (%rax),%rax
    4240:	48 8b 55 b8          	mov    -0x48(%rbp),%rdx
    4244:	48 8b 75 d0          	mov    -0x30(%rbp),%rsi
    4248:	48 89 d9             	mov    %rbx,%rcx
    424b:	48 89 c7             	mov    %rax,%rdi
    424e:	e8 d8 06 00 00       	callq  492b <_ZNSt6vectorIN8Debugger9addrRangeESaIS1_EE11_S_relocateEPS1_S4_S4_RS2_>
    4253:	48 89 45 b8          	mov    %rax,-0x48(%rbp)
    4257:	eb 72                	jmp    42cb <_ZNSt6vectorIN8Debugger9addrRangeESaIS1_EE17_M_realloc_insertIJRKS1_EEEvN9__gnu_cxx17__normal_iteratorIPS1_S3_EEDpOT_+0x1dd>
    4259:	48 8b 45 a8          	mov    -0x58(%rbp),%rax
    425d:	48 89 c7             	mov    %rax,%rdi
    4260:	e8 01 fb ff ff       	callq  3d66 <_ZNSt12_Vector_baseIN8Debugger9addrRangeESaIS1_EE19_M_get_Tp_allocatorEv>
    4265:	48 89 c3             	mov    %rax,%rbx
    4268:	48 8d 45 a0          	lea    -0x60(%rbp),%rax
    426c:	48 89 c7             	mov    %rax,%rdi
    426f:	e8 10 07 00 00       	callq  4984 <_ZNK9__gnu_cxx17__normal_iteratorIPN8Debugger9addrRangeESt6vectorIS2_SaIS2_EEE4baseEv>
    4274:	48 8b 30             	mov    (%rax),%rsi
    4277:	48 8b 55 e0          	mov    -0x20(%rbp),%rdx
    427b:	48 8b 45 c8          	mov    -0x38(%rbp),%rax
    427f:	48 89 d9             	mov    %rbx,%rcx
    4282:	48 89 c7             	mov    %rax,%rdi
    4285:	e8 0c 07 00 00       	callq  4996 <_ZSt34__uninitialized_move_if_noexcept_aIPN8Debugger9addrRangeES2_SaIS1_EET0_T_S5_S4_RT1_>
    428a:	48 89 45 b8          	mov    %rax,-0x48(%rbp)
    428e:	48 81 45 b8 a4 00 00 	addq   $0xa4,-0x48(%rbp)
    4295:	00 
    4296:	48 8b 45 a8          	mov    -0x58(%rbp),%rax
    429a:	48 89 c7             	mov    %rax,%rdi
    429d:	e8 c4 fa ff ff       	callq  3d66 <_ZNSt12_Vector_baseIN8Debugger9addrRangeESaIS1_EE19_M_get_Tp_allocatorEv>
    42a2:	48 89 c3             	mov    %rax,%rbx
    42a5:	48 8d 45 a0          	lea    -0x60(%rbp),%rax
    42a9:	48 89 c7             	mov    %rax,%rdi
    42ac:	e8 d3 06 00 00       	callq  4984 <_ZNK9__gnu_cxx17__normal_iteratorIPN8Debugger9addrRangeESt6vectorIS2_SaIS2_EEE4baseEv>
    42b1:	48 8b 00             	mov    (%rax),%rax
    42b4:	48 8b 55 b8          	mov    -0x48(%rbp),%rdx
    42b8:	48 8b 75 d0          	mov    -0x30(%rbp),%rsi
    42bc:	48 89 d9             	mov    %rbx,%rcx
    42bf:	48 89 c7             	mov    %rax,%rdi
    42c2:	e8 cf 06 00 00       	callq  4996 <_ZSt34__uninitialized_move_if_noexcept_aIPN8Debugger9addrRangeES2_SaIS1_EET0_T_S5_S4_RT1_>
    42c7:	48 89 45 b8          	mov    %rax,-0x48(%rbp)
    42cb:	e8 d8 fd ff ff       	callq  40a8 <_ZNSt6vectorIN8Debugger9addrRangeESaIS1_EE15_S_use_relocateEv>
    42d0:	83 f0 01             	xor    $0x1,%eax
    42d3:	84 c0                	test   %al,%al
    42d5:	74 22                	je     42f9 <_ZNSt6vectorIN8Debugger9addrRangeESaIS1_EE17_M_realloc_insertIJRKS1_EEEvN9__gnu_cxx17__normal_iteratorIPS1_S3_EEDpOT_+0x20b>
    42d7:	48 8b 45 a8          	mov    -0x58(%rbp),%rax
    42db:	48 89 c7             	mov    %rax,%rdi
    42de:	e8 83 fa ff ff       	callq  3d66 <_ZNSt12_Vector_baseIN8Debugger9addrRangeESaIS1_EE19_M_get_Tp_allocatorEv>
    42e3:	48 89 c2             	mov    %rax,%rdx
    42e6:	48 8b 4d d0          	mov    -0x30(%rbp),%rcx
    42ea:	48 8b 45 c8          	mov    -0x38(%rbp),%rax
    42ee:	48 89 ce             	mov    %rcx,%rsi
    42f1:	48 89 c7             	mov    %rax,%rdi
    42f4:	e8 7f fa ff ff       	callq  3d78 <_ZSt8_DestroyIPN8Debugger9addrRangeES1_EvT_S3_RSaIT0_E>
    42f9:	48 8b 45 a8          	mov    -0x58(%rbp),%rax
    42fd:	48 8b 55 a8          	mov    -0x58(%rbp),%rdx
    4301:	48 8b 52 10          	mov    0x10(%rdx),%rdx
    4305:	48 2b 55 c8          	sub    -0x38(%rbp),%rdx
    4309:	48 89 d1             	mov    %rdx,%rcx
    430c:	48 c1 f9 02          	sar    $0x2,%rcx
    4310:	48 ba 19 9c 8f c1 f9 	movabs $0x8f9c18f9c18f9c19,%rdx
    4317:	18 9c 8f 
    431a:	48 0f af d1          	imul   %rcx,%rdx
    431e:	48 8b 4d c8          	mov    -0x38(%rbp),%rcx
    4322:	48 89 ce             	mov    %rcx,%rsi
    4325:	48 89 c7             	mov    %rax,%rdi
    4328:	e8 b3 fa ff ff       	callq  3de0 <_ZNSt12_Vector_baseIN8Debugger9addrRangeESaIS1_EE13_M_deallocateEPS1_m>
    432d:	48 8b 45 a8          	mov    -0x58(%rbp),%rax
    4331:	48 8b 55 e0          	mov    -0x20(%rbp),%rdx
    4335:	48 89 10             	mov    %rdx,(%rax)
    4338:	48 8b 45 a8          	mov    -0x58(%rbp),%rax
    433c:	48 8b 55 b8          	mov    -0x48(%rbp),%rdx
    4340:	48 89 50 08          	mov    %rdx,0x8(%rax)
    4344:	48 8b 55 c0          	mov    -0x40(%rbp),%rdx
    4348:	48 89 d0             	mov    %rdx,%rax
    434b:	48 c1 e0 02          	shl    $0x2,%rax
    434f:	48 01 d0             	add    %rdx,%rax
    4352:	48 c1 e0 03          	shl    $0x3,%rax
    4356:	48 01 d0             	add    %rdx,%rax
    4359:	48 c1 e0 02          	shl    $0x2,%rax
    435d:	48 89 c2             	mov    %rax,%rdx
    4360:	48 8b 45 e0          	mov    -0x20(%rbp),%rax
    4364:	48 01 c2             	add    %rax,%rdx
    4367:	48 8b 45 a8          	mov    -0x58(%rbp),%rax
    436b:	48 89 50 10          	mov    %rdx,0x10(%rax)
    436f:	90                   	nop
    4370:	48 8b 45 e8          	mov    -0x18(%rbp),%rax
    4374:	64 48 33 04 25 28 00 	xor    %fs:0x28,%rax
    437b:	00 00 
    437d:	0f 84 a6 00 00 00    	je     4429 <_ZNSt6vectorIN8Debugger9addrRangeESaIS1_EE17_M_realloc_insertIJRKS1_EEEvN9__gnu_cxx17__normal_iteratorIPS1_S3_EEDpOT_+0x33b>
    4383:	e9 9c 00 00 00       	jmpq   4424 <_ZNSt6vectorIN8Debugger9addrRangeESaIS1_EE17_M_realloc_insertIJRKS1_EEEvN9__gnu_cxx17__normal_iteratorIPS1_S3_EEDpOT_+0x336>
    4388:	f3 0f 1e fa          	endbr64 
    438c:	48 89 c7             	mov    %rax,%rdi
    438f:	e8 8c e0 ff ff       	callq  2420 <__cxa_begin_catch@plt>
    4394:	48 83 7d b8 00       	cmpq   $0x0,-0x48(%rbp)
    4399:	75 34                	jne    43cf <_ZNSt6vectorIN8Debugger9addrRangeESaIS1_EE17_M_realloc_insertIJRKS1_EEEvN9__gnu_cxx17__normal_iteratorIPS1_S3_EEDpOT_+0x2e1>
    439b:	48 8b 55 d8          	mov    -0x28(%rbp),%rdx
    439f:	48 89 d0             	mov    %rdx,%rax
    43a2:	48 c1 e0 02          	shl    $0x2,%rax
    43a6:	48 01 d0             	add    %rdx,%rax
    43a9:	48 c1 e0 03          	shl    $0x3,%rax
    43ad:	48 01 d0             	add    %rdx,%rax
    43b0:	48 c1 e0 02          	shl    $0x2,%rax
    43b4:	48 89 c2             	mov    %rax,%rdx
    43b7:	48 8b 45 e0          	mov    -0x20(%rbp),%rax
    43bb:	48 01 c2             	add    %rax,%rdx
    43be:	48 8b 45 a8          	mov    -0x58(%rbp),%rax
    43c2:	48 89 d6             	mov    %rdx,%rsi
    43c5:	48 89 c7             	mov    %rax,%rdi
    43c8:	e8 21 06 00 00       	callq  49ee <_ZNSt16allocator_traitsISaIN8Debugger9addrRangeEEE7destroyIS1_EEvRS2_PT_>
    43cd:	eb 22                	jmp    43f1 <_ZNSt6vectorIN8Debugger9addrRangeESaIS1_EE17_M_realloc_insertIJRKS1_EEEvN9__gnu_cxx17__normal_iteratorIPS1_S3_EEDpOT_+0x303>
    43cf:	48 8b 45 a8          	mov    -0x58(%rbp),%rax
    43d3:	48 89 c7             	mov    %rax,%rdi
    43d6:	e8 8b f9 ff ff       	callq  3d66 <_ZNSt12_Vector_baseIN8Debugger9addrRangeESaIS1_EE19_M_get_Tp_allocatorEv>
    43db:	48 89 c2             	mov    %rax,%rdx
    43de:	48 8b 4d b8          	mov    -0x48(%rbp),%rcx
    43e2:	48 8b 45 e0          	mov    -0x20(%rbp),%rax
    43e6:	48 89 ce             	mov    %rcx,%rsi
    43e9:	48 89 c7             	mov    %rax,%rdi
    43ec:	e8 87 f9 ff ff       	callq  3d78 <_ZSt8_DestroyIPN8Debugger9addrRangeES1_EvT_S3_RSaIT0_E>
    43f1:	48 8b 45 a8          	mov    -0x58(%rbp),%rax
    43f5:	48 8b 55 c0          	mov    -0x40(%rbp),%rdx
    43f9:	48 8b 4d e0          	mov    -0x20(%rbp),%rcx
    43fd:	48 89 ce             	mov    %rcx,%rsi
    4400:	48 89 c7             	mov    %rax,%rdi
    4403:	e8 d8 f9 ff ff       	callq  3de0 <_ZNSt12_Vector_baseIN8Debugger9addrRangeESaIS1_EE13_M_deallocateEPS1_m>
    4408:	e8 53 e2 ff ff       	callq  2660 <__cxa_rethrow@plt>
    440d:	f3 0f 1e fa          	endbr64 
    4411:	48 89 c3             	mov    %rax,%rbx
    4414:	e8 97 e2 ff ff       	callq  26b0 <__cxa_end_catch@plt>
    4419:	48 89 d8             	mov    %rbx,%rax
    441c:	48 89 c7             	mov    %rax,%rdi
    441f:	e8 9c e2 ff ff       	callq  26c0 <_Unwind_Resume@plt>
    4424:	e8 97 e1 ff ff       	callq  25c0 <__stack_chk_fail@plt>
    4429:	48 83 c4 68          	add    $0x68,%rsp
    442d:	5b                   	pop    %rbx
    442e:	5d                   	pop    %rbp
    442f:	c3                   	retq   

0000000000004430 <_ZNSt7__cxx1112basic_stringIcSt11char_traitsIcESaIcEE12_M_constructIPcEEvT_S7_>:
    4430:	f3 0f 1e fa          	endbr64 
    4434:	55                   	push   %rbp
    4435:	48 89 e5             	mov    %rsp,%rbp
    4438:	48 83 ec 30          	sub    $0x30,%rsp
    443c:	48 89 7d e8          	mov    %rdi,-0x18(%rbp)
    4440:	48 89 75 e0          	mov    %rsi,-0x20(%rbp)
    4444:	48 89 55 d8          	mov    %rdx,-0x28(%rbp)
    4448:	64 48 8b 04 25 28 00 	mov    %fs:0x28,%rax
    444f:	00 00 
    4451:	48 89 45 f8          	mov    %rax,-0x8(%rbp)
    4455:	31 c0                	xor    %eax,%eax
    4457:	48 8b 55 d8          	mov    -0x28(%rbp),%rdx
    445b:	48 8b 4d e0          	mov    -0x20(%rbp),%rcx
    445f:	48 8b 45 e8          	mov    -0x18(%rbp),%rax
    4463:	48 89 ce             	mov    %rcx,%rsi
    4466:	48 89 c7             	mov    %rax,%rdi
    4469:	e8 aa 05 00 00       	callq  4a18 <_ZNSt7__cxx1112basic_stringIcSt11char_traitsIcESaIcEE16_M_construct_auxIPcEEvT_S7_St12__false_type>
    446e:	90                   	nop
    446f:	48 8b 45 f8          	mov    -0x8(%rbp),%rax
    4473:	64 48 33 04 25 28 00 	xor    %fs:0x28,%rax
    447a:	00 00 
    447c:	74 05                	je     4483 <_ZNSt7__cxx1112basic_stringIcSt11char_traitsIcESaIcEE12_M_constructIPcEEvT_S7_+0x53>
    447e:	e8 3d e1 ff ff       	callq  25c0 <__stack_chk_fail@plt>
    4483:	c9                   	leaveq 
    4484:	c3                   	retq   

0000000000004485 <_ZSt8_DestroyIPN8Debugger9addrRangeEEvT_S3_>:
    4485:	f3 0f 1e fa          	endbr64 
    4489:	55                   	push   %rbp
    448a:	48 89 e5             	mov    %rsp,%rbp
    448d:	48 83 ec 10          	sub    $0x10,%rsp
    4491:	48 89 7d f8          	mov    %rdi,-0x8(%rbp)
    4495:	48 89 75 f0          	mov    %rsi,-0x10(%rbp)
    4499:	48 8b 55 f0          	mov    -0x10(%rbp),%rdx
    449d:	48 8b 45 f8          	mov    -0x8(%rbp),%rax
    44a1:	48 89 d6             	mov    %rdx,%rsi
    44a4:	48 89 c7             	mov    %rax,%rdi
    44a7:	e8 c1 05 00 00       	callq  4a6d <_ZNSt12_Destroy_auxILb1EE9__destroyIPN8Debugger9addrRangeEEEvT_S5_>
    44ac:	90                   	nop
    44ad:	c9                   	leaveq 
    44ae:	c3                   	retq   
    44af:	90                   	nop

00000000000044b0 <_ZN9__gnu_cxx13new_allocatorIN8Debugger9addrRangeEEC1ERKS3_>:
    44b0:	f3 0f 1e fa          	endbr64 
    44b4:	55                   	push   %rbp
    44b5:	48 89 e5             	mov    %rsp,%rbp
    44b8:	48 89 7d f8          	mov    %rdi,-0x8(%rbp)
    44bc:	48 89 75 f0          	mov    %rsi,-0x10(%rbp)
    44c0:	90                   	nop
    44c1:	5d                   	pop    %rbp
    44c2:	c3                   	retq   

00000000000044c3 <_ZNSt16allocator_traitsISaIN8Debugger9addrRangeEEE10deallocateERS2_PS1_m>:
    44c3:	f3 0f 1e fa          	endbr64 
    44c7:	55                   	push   %rbp
    44c8:	48 89 e5             	mov    %rsp,%rbp
    44cb:	48 83 ec 20          	sub    $0x20,%rsp
    44cf:	48 89 7d f8          	mov    %rdi,-0x8(%rbp)
    44d3:	48 89 75 f0          	mov    %rsi,-0x10(%rbp)
    44d7:	48 89 55 e8          	mov    %rdx,-0x18(%rbp)
    44db:	48 8b 55 e8          	mov    -0x18(%rbp),%rdx
    44df:	48 8b 4d f0          	mov    -0x10(%rbp),%rcx
    44e3:	48 8b 45 f8          	mov    -0x8(%rbp),%rax
    44e7:	48 89 ce             	mov    %rcx,%rsi
    44ea:	48 89 c7             	mov    %rax,%rdi
    44ed:	e8 8e 05 00 00       	callq  4a80 <_ZN9__gnu_cxx13new_allocatorIN8Debugger9addrRangeEE10deallocateEPS2_m>
    44f2:	90                   	nop
    44f3:	c9                   	leaveq 
    44f4:	c3                   	retq   

00000000000044f5 <_ZNSt16allocator_traitsISaIN8Debugger9addrRangeEEE37select_on_container_copy_constructionERKS2_>:
    44f5:	f3 0f 1e fa          	endbr64 
    44f9:	55                   	push   %rbp
    44fa:	48 89 e5             	mov    %rsp,%rbp
    44fd:	48 83 ec 10          	sub    $0x10,%rsp
    4501:	48 89 7d f8          	mov    %rdi,-0x8(%rbp)
    4505:	48 89 75 f0          	mov    %rsi,-0x10(%rbp)
    4509:	48 8b 55 f0          	mov    -0x10(%rbp),%rdx
    450d:	48 8b 45 f8          	mov    -0x8(%rbp),%rax
    4511:	48 89 d6             	mov    %rdx,%rsi
    4514:	48 89 c7             	mov    %rax,%rdi
    4517:	e8 8a f8 ff ff       	callq  3da6 <_ZNSaIN8Debugger9addrRangeEEC1ERKS1_>
    451c:	48 8b 45 f8          	mov    -0x8(%rbp),%rax
    4520:	c9                   	leaveq 
    4521:	c3                   	retq   

0000000000004522 <_ZNSt12_Vector_baseIN8Debugger9addrRangeESaIS1_EE12_Vector_implC1ERKS2_>:
    4522:	f3 0f 1e fa          	endbr64 
    4526:	55                   	push   %rbp
    4527:	48 89 e5             	mov    %rsp,%rbp
    452a:	48 83 ec 10          	sub    $0x10,%rsp
    452e:	48 89 7d f8          	mov    %rdi,-0x8(%rbp)
    4532:	48 89 75 f0          	mov    %rsi,-0x10(%rbp)
    4536:	48 8b 55 f0          	mov    -0x10(%rbp),%rdx
    453a:	48 8b 45 f8          	mov    -0x8(%rbp),%rax
    453e:	48 89 d6             	mov    %rdx,%rsi
    4541:	48 89 c7             	mov    %rax,%rdi
    4544:	e8 5d f8 ff ff       	callq  3da6 <_ZNSaIN8Debugger9addrRangeEEC1ERKS1_>
    4549:	48 8b 45 f8          	mov    -0x8(%rbp),%rax
    454d:	48 89 c7             	mov    %rax,%rdi
    4550:	e8 93 fa ff ff       	callq  3fe8 <_ZNSt12_Vector_baseIN8Debugger9addrRangeESaIS1_EE17_Vector_impl_dataC1Ev>
    4555:	90                   	nop
    4556:	c9                   	leaveq 
    4557:	c3                   	retq   

0000000000004558 <_ZNSt12_Vector_baseIN8Debugger9addrRangeESaIS1_EE17_M_create_storageEm>:
    4558:	f3 0f 1e fa          	endbr64 
    455c:	55                   	push   %rbp
    455d:	48 89 e5             	mov    %rsp,%rbp
    4560:	48 83 ec 10          	sub    $0x10,%rsp
    4564:	48 89 7d f8          	mov    %rdi,-0x8(%rbp)
    4568:	48 89 75 f0          	mov    %rsi,-0x10(%rbp)
    456c:	48 8b 55 f0          	mov    -0x10(%rbp),%rdx
    4570:	48 8b 45 f8          	mov    -0x8(%rbp),%rax
    4574:	48 89 d6             	mov    %rdx,%rsi
    4577:	48 89 c7             	mov    %rax,%rdi
    457a:	e8 75 03 00 00       	callq  48f4 <_ZNSt12_Vector_baseIN8Debugger9addrRangeESaIS1_EE11_M_allocateEm>
    457f:	48 8b 55 f8          	mov    -0x8(%rbp),%rdx
    4583:	48 89 02             	mov    %rax,(%rdx)
    4586:	48 8b 45 f8          	mov    -0x8(%rbp),%rax
    458a:	48 8b 10             	mov    (%rax),%rdx
    458d:	48 8b 45 f8          	mov    -0x8(%rbp),%rax
    4591:	48 89 50 08          	mov    %rdx,0x8(%rax)
    4595:	48 8b 45 f8          	mov    -0x8(%rbp),%rax
    4599:	48 8b 08             	mov    (%rax),%rcx
    459c:	48 8b 55 f0          	mov    -0x10(%rbp),%rdx
    45a0:	48 89 d0             	mov    %rdx,%rax
    45a3:	48 c1 e0 02          	shl    $0x2,%rax
    45a7:	48 01 d0             	add    %rdx,%rax
    45aa:	48 c1 e0 03          	shl    $0x3,%rax
    45ae:	48 01 d0             	add    %rdx,%rax
    45b1:	48 c1 e0 02          	shl    $0x2,%rax
    45b5:	48 8d 14 01          	lea    (%rcx,%rax,1),%rdx
    45b9:	48 8b 45 f8          	mov    -0x8(%rbp),%rax
    45bd:	48 89 50 10          	mov    %rdx,0x10(%rax)
    45c1:	90                   	nop
    45c2:	c9                   	leaveq 
    45c3:	c3                   	retq   

00000000000045c4 <_ZN9__gnu_cxx17__normal_iteratorIPKN8Debugger9addrRangeESt6vectorIS2_SaIS2_EEEC1ERKS4_>:
    45c4:	f3 0f 1e fa          	endbr64 
    45c8:	55                   	push   %rbp
    45c9:	48 89 e5             	mov    %rsp,%rbp
    45cc:	48 89 7d f8          	mov    %rdi,-0x8(%rbp)
    45d0:	48 89 75 f0          	mov    %rsi,-0x10(%rbp)
    45d4:	48 8b 45 f0          	mov    -0x10(%rbp),%rax
    45d8:	48 8b 10             	mov    (%rax),%rdx
    45db:	48 8b 45 f8          	mov    -0x8(%rbp),%rax
    45df:	48 89 10             	mov    %rdx,(%rax)
    45e2:	90                   	nop
    45e3:	5d                   	pop    %rbp
    45e4:	c3                   	retq   

00000000000045e5 <_ZSt18uninitialized_copyIN9__gnu_cxx17__normal_iteratorIPKN8Debugger9addrRangeESt6vectorIS3_SaIS3_EEEEPS3_ET0_T_SC_SB_>:
    45e5:	f3 0f 1e fa          	endbr64 
    45e9:	55                   	push   %rbp
    45ea:	48 89 e5             	mov    %rsp,%rbp
    45ed:	48 83 ec 30          	sub    $0x30,%rsp
    45f1:	48 89 7d e8          	mov    %rdi,-0x18(%rbp)
    45f5:	48 89 75 e0          	mov    %rsi,-0x20(%rbp)
    45f9:	48 89 55 d8          	mov    %rdx,-0x28(%rbp)
    45fd:	c6 45 ff 01          	movb   $0x1,-0x1(%rbp)
    4601:	48 8b 55 d8          	mov    -0x28(%rbp),%rdx
    4605:	48 8b 4d e0          	mov    -0x20(%rbp),%rcx
    4609:	48 8b 45 e8          	mov    -0x18(%rbp),%rax
    460d:	48 89 ce             	mov    %rcx,%rsi
    4610:	48 89 c7             	mov    %rax,%rdi
    4613:	e8 8f 04 00 00       	callq  4aa7 <_ZNSt20__uninitialized_copyILb1EE13__uninit_copyIN9__gnu_cxx17__normal_iteratorIPKN8Debugger9addrRangeESt6vectorIS5_SaIS5_EEEEPS5_EET0_T_SE_SD_>
    4618:	c9                   	leaveq 
    4619:	c3                   	retq   

000000000000461a <_ZN9__gnu_cxx13new_allocatorIN8Debugger9addrRangeEEC1Ev>:
    461a:	f3 0f 1e fa          	endbr64 
    461e:	55                   	push   %rbp
    461f:	48 89 e5             	mov    %rsp,%rbp
    4622:	48 89 7d f8          	mov    %rdi,-0x8(%rbp)
    4626:	90                   	nop
    4627:	5d                   	pop    %rbp
    4628:	c3                   	retq   

0000000000004629 <_ZSt7forwardIRKN8Debugger9addrRangeEEOT_RNSt16remove_referenceIS4_E4typeE>:
    4629:	f3 0f 1e fa          	endbr64 
    462d:	55                   	push   %rbp
    462e:	48 89 e5             	mov    %rsp,%rbp
    4631:	48 89 7d f8          	mov    %rdi,-0x8(%rbp)
    4635:	48 8b 45 f8          	mov    -0x8(%rbp),%rax
    4639:	5d                   	pop    %rbp
    463a:	c3                   	retq   
    463b:	90                   	nop

000000000000463c <_ZN9__gnu_cxx13new_allocatorIN8Debugger9addrRangeEE9constructIS2_JRKS2_EEEvPT_DpOT0_>:
    463c:	f3 0f 1e fa          	endbr64 
    4640:	55                   	push   %rbp
    4641:	48 89 e5             	mov    %rsp,%rbp
    4644:	53                   	push   %rbx
    4645:	48 83 ec 28          	sub    $0x28,%rsp
    4649:	48 89 7d e8          	mov    %rdi,-0x18(%rbp)
    464d:	48 89 75 e0          	mov    %rsi,-0x20(%rbp)
    4651:	48 89 55 d8          	mov    %rdx,-0x28(%rbp)
    4655:	48 8b 45 d8          	mov    -0x28(%rbp),%rax
    4659:	48 89 c7             	mov    %rax,%rdi
    465c:	e8 c8 ff ff ff       	callq  4629 <_ZSt7forwardIRKN8Debugger9addrRangeEEOT_RNSt16remove_referenceIS4_E4typeE>
    4661:	48 89 c3             	mov    %rax,%rbx
    4664:	48 8b 45 e0          	mov    -0x20(%rbp),%rax
    4668:	48 89 c6             	mov    %rax,%rsi
    466b:	bf a4 00 00 00       	mov    $0xa4,%edi
    4670:	e8 80 e2 ff ff       	callq  28f5 <_ZnwmPv>
    4675:	48 8b 33             	mov    (%rbx),%rsi
    4678:	48 8b 7b 08          	mov    0x8(%rbx),%rdi
    467c:	48 89 30             	mov    %rsi,(%rax)
    467f:	48 89 78 08          	mov    %rdi,0x8(%rax)
    4683:	48 8b 73 10          	mov    0x10(%rbx),%rsi
    4687:	48 8b 7b 18          	mov    0x18(%rbx),%rdi
    468b:	48 89 70 10          	mov    %rsi,0x10(%rax)
    468f:	48 89 78 18          	mov    %rdi,0x18(%rax)
    4693:	48 8b 73 20          	mov    0x20(%rbx),%rsi
    4697:	48 8b 7b 28          	mov    0x28(%rbx),%rdi
    469b:	48 89 70 20          	mov    %rsi,0x20(%rax)
    469f:	48 89 78 28          	mov    %rdi,0x28(%rax)
    46a3:	48 8b 73 30          	mov    0x30(%rbx),%rsi
    46a7:	48 8b 7b 38          	mov    0x38(%rbx),%rdi
    46ab:	48 89 70 30          	mov    %rsi,0x30(%rax)
    46af:	48 89 78 38          	mov    %rdi,0x38(%rax)
    46b3:	48 8b 73 40          	mov    0x40(%rbx),%rsi
    46b7:	48 8b 7b 48          	mov    0x48(%rbx),%rdi
    46bb:	48 89 70 40          	mov    %rsi,0x40(%rax)
    46bf:	48 89 78 48          	mov    %rdi,0x48(%rax)
    46c3:	48 8b 73 50          	mov    0x50(%rbx),%rsi
    46c7:	48 8b 7b 58          	mov    0x58(%rbx),%rdi
    46cb:	48 89 70 50          	mov    %rsi,0x50(%rax)
    46cf:	48 89 78 58          	mov    %rdi,0x58(%rax)
    46d3:	48 8b 73 60          	mov    0x60(%rbx),%rsi
    46d7:	48 8b 7b 68          	mov    0x68(%rbx),%rdi
    46db:	48 89 70 60          	mov    %rsi,0x60(%rax)
    46df:	48 89 78 68          	mov    %rdi,0x68(%rax)
    46e3:	48 8b 73 70          	mov    0x70(%rbx),%rsi
    46e7:	48 8b 7b 78          	mov    0x78(%rbx),%rdi
    46eb:	48 89 70 70          	mov    %rsi,0x70(%rax)
    46ef:	48 89 78 78          	mov    %rdi,0x78(%rax)
    46f3:	48 8b b3 80 00 00 00 	mov    0x80(%rbx),%rsi
    46fa:	48 8b bb 88 00 00 00 	mov    0x88(%rbx),%rdi
    4701:	48 89 b0 80 00 00 00 	mov    %rsi,0x80(%rax)
    4708:	48 89 b8 88 00 00 00 	mov    %rdi,0x88(%rax)
    470f:	48 8b b3 90 00 00 00 	mov    0x90(%rbx),%rsi
    4716:	48 8b bb 98 00 00 00 	mov    0x98(%rbx),%rdi
    471d:	48 89 b0 90 00 00 00 	mov    %rsi,0x90(%rax)
    4724:	48 89 b8 98 00 00 00 	mov    %rdi,0x98(%rax)
    472b:	8b 93 a0 00 00 00    	mov    0xa0(%rbx),%edx
    4731:	89 90 a0 00 00 00    	mov    %edx,0xa0(%rax)
    4737:	90                   	nop
    4738:	48 83 c4 28          	add    $0x28,%rsp
    473c:	5b                   	pop    %rbx
    473d:	5d                   	pop    %rbp
    473e:	c3                   	retq   
    473f:	90                   	nop

0000000000004740 <_ZN9__gnu_cxx17__normal_iteratorIPN8Debugger9addrRangeESt6vectorIS2_SaIS2_EEEC1ERKS3_>:
    4740:	f3 0f 1e fa          	endbr64 
    4744:	55                   	push   %rbp
    4745:	48 89 e5             	mov    %rsp,%rbp
    4748:	48 89 7d f8          	mov    %rdi,-0x8(%rbp)
    474c:	48 89 75 f0          	mov    %rsi,-0x10(%rbp)
    4750:	48 8b 45 f0          	mov    -0x10(%rbp),%rax
    4754:	48 8b 10             	mov    (%rax),%rdx
    4757:	48 8b 45 f8          	mov    -0x8(%rbp),%rax
    475b:	48 89 10             	mov    %rdx,(%rax)
    475e:	90                   	nop
    475f:	5d                   	pop    %rbp
    4760:	c3                   	retq   
    4761:	90                   	nop

0000000000004762 <_ZNKSt6vectorIN8Debugger9addrRangeESaIS1_EE12_M_check_lenEmPKc>:
    4762:	f3 0f 1e fa          	endbr64 
    4766:	55                   	push   %rbp
    4767:	48 89 e5             	mov    %rsp,%rbp
    476a:	53                   	push   %rbx
    476b:	48 83 ec 48          	sub    $0x48,%rsp
    476f:	48 89 7d c8          	mov    %rdi,-0x38(%rbp)
    4773:	48 89 75 c0          	mov    %rsi,-0x40(%rbp)
    4777:	48 89 55 b8          	mov    %rdx,-0x48(%rbp)
    477b:	64 48 8b 04 25 28 00 	mov    %fs:0x28,%rax
    4782:	00 00 
    4784:	48 89 45 e8          	mov    %rax,-0x18(%rbp)
    4788:	31 c0                	xor    %eax,%eax
    478a:	48 8b 45 c8          	mov    -0x38(%rbp),%rax
    478e:	48 89 c7             	mov    %rax,%rdi
    4791:	e8 42 03 00 00       	callq  4ad8 <_ZNKSt6vectorIN8Debugger9addrRangeESaIS1_EE8max_sizeEv>
    4796:	48 89 c3             	mov    %rax,%rbx
    4799:	48 8b 45 c8          	mov    -0x38(%rbp),%rax
    479d:	48 89 c7             	mov    %rax,%rdi
    47a0:	e8 d3 f4 ff ff       	callq  3c78 <_ZNKSt6vectorIN8Debugger9addrRangeESaIS1_EE4sizeEv>
    47a5:	48 29 c3             	sub    %rax,%rbx
    47a8:	48 89 da             	mov    %rbx,%rdx
    47ab:	48 8b 45 c0          	mov    -0x40(%rbp),%rax
    47af:	48 39 c2             	cmp    %rax,%rdx
    47b2:	0f 92 c0             	setb   %al
    47b5:	84 c0                	test   %al,%al
    47b7:	74 0c                	je     47c5 <_ZNKSt6vectorIN8Debugger9addrRangeESaIS1_EE12_M_check_lenEmPKc+0x63>
    47b9:	48 8b 45 b8          	mov    -0x48(%rbp),%rax
    47bd:	48 89 c7             	mov    %rax,%rdi
    47c0:	e8 8b dc ff ff       	callq  2450 <_ZSt20__throw_length_errorPKc@plt>
    47c5:	48 8b 45 c8          	mov    -0x38(%rbp),%rax
    47c9:	48 89 c7             	mov    %rax,%rdi
    47cc:	e8 a7 f4 ff ff       	callq  3c78 <_ZNKSt6vectorIN8Debugger9addrRangeESaIS1_EE4sizeEv>
    47d1:	48 89 c3             	mov    %rax,%rbx
    47d4:	48 8b 45 c8          	mov    -0x38(%rbp),%rax
    47d8:	48 89 c7             	mov    %rax,%rdi
    47db:	e8 98 f4 ff ff       	callq  3c78 <_ZNKSt6vectorIN8Debugger9addrRangeESaIS1_EE4sizeEv>
    47e0:	48 89 45 d8          	mov    %rax,-0x28(%rbp)
    47e4:	48 8d 55 c0          	lea    -0x40(%rbp),%rdx
    47e8:	48 8d 45 d8          	lea    -0x28(%rbp),%rax
    47ec:	48 89 d6             	mov    %rdx,%rsi
    47ef:	48 89 c7             	mov    %rax,%rdi
    47f2:	e8 ba f1 ff ff       	callq  39b1 <_ZSt3maxImERKT_S2_S2_>
    47f7:	48 8b 00             	mov    (%rax),%rax
    47fa:	48 01 d8             	add    %rbx,%rax
    47fd:	48 89 45 e0          	mov    %rax,-0x20(%rbp)
    4801:	48 8b 45 c8          	mov    -0x38(%rbp),%rax
    4805:	48 89 c7             	mov    %rax,%rdi
    4808:	e8 6b f4 ff ff       	callq  3c78 <_ZNKSt6vectorIN8Debugger9addrRangeESaIS1_EE4sizeEv>
    480d:	48 39 45 e0          	cmp    %rax,-0x20(%rbp)
    4811:	72 12                	jb     4825 <_ZNKSt6vectorIN8Debugger9addrRangeESaIS1_EE12_M_check_lenEmPKc+0xc3>
    4813:	48 8b 45 c8          	mov    -0x38(%rbp),%rax
    4817:	48 89 c7             	mov    %rax,%rdi
    481a:	e8 b9 02 00 00       	callq  4ad8 <_ZNKSt6vectorIN8Debugger9addrRangeESaIS1_EE8max_sizeEv>
    481f:	48 39 45 e0          	cmp    %rax,-0x20(%rbp)
    4823:	76 0e                	jbe    4833 <_ZNKSt6vectorIN8Debugger9addrRangeESaIS1_EE12_M_check_lenEmPKc+0xd1>
    4825:	48 8b 45 c8          	mov    -0x38(%rbp),%rax
    4829:	48 89 c7             	mov    %rax,%rdi
    482c:	e8 a7 02 00 00       	callq  4ad8 <_ZNKSt6vectorIN8Debugger9addrRangeESaIS1_EE8max_sizeEv>
    4831:	eb 04                	jmp    4837 <_ZNKSt6vectorIN8Debugger9addrRangeESaIS1_EE12_M_check_lenEmPKc+0xd5>
    4833:	48 8b 45 e0          	mov    -0x20(%rbp),%rax
    4837:	48 8b 4d e8          	mov    -0x18(%rbp),%rcx
    483b:	64 48 33 0c 25 28 00 	xor    %fs:0x28,%rcx
    4842:	00 00 
    4844:	74 05                	je     484b <_ZNKSt6vectorIN8Debugger9addrRangeESaIS1_EE12_M_check_lenEmPKc+0xe9>
    4846:	e8 75 dd ff ff       	callq  25c0 <__stack_chk_fail@plt>
    484b:	48 83 c4 48          	add    $0x48,%rsp
    484f:	5b                   	pop    %rbx
    4850:	5d                   	pop    %rbp
    4851:	c3                   	retq   

0000000000004852 <_ZNSt6vectorIN8Debugger9addrRangeESaIS1_EE5beginEv>:
    4852:	f3 0f 1e fa          	endbr64 
    4856:	55                   	push   %rbp
    4857:	48 89 e5             	mov    %rsp,%rbp
    485a:	48 83 ec 20          	sub    $0x20,%rsp
    485e:	48 89 7d e8          	mov    %rdi,-0x18(%rbp)
    4862:	64 48 8b 04 25 28 00 	mov    %fs:0x28,%rax
    4869:	00 00 
    486b:	48 89 45 f8          	mov    %rax,-0x8(%rbp)
    486f:	31 c0                	xor    %eax,%eax
    4871:	48 8b 55 e8          	mov    -0x18(%rbp),%rdx
    4875:	48 8d 45 f0          	lea    -0x10(%rbp),%rax
    4879:	48 89 d6             	mov    %rdx,%rsi
    487c:	48 89 c7             	mov    %rax,%rdi
    487f:	e8 bc fe ff ff       	callq  4740 <_ZN9__gnu_cxx17__normal_iteratorIPN8Debugger9addrRangeESt6vectorIS2_SaIS2_EEEC1ERKS3_>
    4884:	48 8b 45 f0          	mov    -0x10(%rbp),%rax
    4888:	48 8b 4d f8          	mov    -0x8(%rbp),%rcx
    488c:	64 48 33 0c 25 28 00 	xor    %fs:0x28,%rcx
    4893:	00 00 
    4895:	74 05                	je     489c <_ZNSt6vectorIN8Debugger9addrRangeESaIS1_EE5beginEv+0x4a>
    4897:	e8 24 dd ff ff       	callq  25c0 <__stack_chk_fail@plt>
    489c:	c9                   	leaveq 
    489d:	c3                   	retq   

000000000000489e <_ZN9__gnu_cxxmiIPN8Debugger9addrRangeESt6vectorIS2_SaIS2_EEEENS_17__normal_iteratorIT_T0_E15difference_typeERKSA_SD_>:
    489e:	f3 0f 1e fa          	endbr64 
    48a2:	55                   	push   %rbp
    48a3:	48 89 e5             	mov    %rsp,%rbp
    48a6:	53                   	push   %rbx
    48a7:	48 83 ec 18          	sub    $0x18,%rsp
    48ab:	48 89 7d e8          	mov    %rdi,-0x18(%rbp)
    48af:	48 89 75 e0          	mov    %rsi,-0x20(%rbp)
    48b3:	48 8b 45 e8          	mov    -0x18(%rbp),%rax
    48b7:	48 89 c7             	mov    %rax,%rdi
    48ba:	e8 c5 00 00 00       	callq  4984 <_ZNK9__gnu_cxx17__normal_iteratorIPN8Debugger9addrRangeESt6vectorIS2_SaIS2_EEE4baseEv>
    48bf:	48 8b 18             	mov    (%rax),%rbx
    48c2:	48 8b 45 e0          	mov    -0x20(%rbp),%rax
    48c6:	48 89 c7             	mov    %rax,%rdi
    48c9:	e8 b6 00 00 00       	callq  4984 <_ZNK9__gnu_cxx17__normal_iteratorIPN8Debugger9addrRangeESt6vectorIS2_SaIS2_EEE4baseEv>
    48ce:	48 8b 00             	mov    (%rax),%rax
    48d1:	48 29 c3             	sub    %rax,%rbx
    48d4:	48 89 d8             	mov    %rbx,%rax
    48d7:	48 c1 f8 02          	sar    $0x2,%rax
    48db:	48 89 c2             	mov    %rax,%rdx
    48de:	48 b8 19 9c 8f c1 f9 	movabs $0x8f9c18f9c18f9c19,%rax
    48e5:	18 9c 8f 
    48e8:	48 0f af c2          	imul   %rdx,%rax
    48ec:	48 83 c4 18          	add    $0x18,%rsp
    48f0:	5b                   	pop    %rbx
    48f1:	5d                   	pop    %rbp
    48f2:	c3                   	retq   
    48f3:	90                   	nop

00000000000048f4 <_ZNSt12_Vector_baseIN8Debugger9addrRangeESaIS1_EE11_M_allocateEm>:
    48f4:	f3 0f 1e fa          	endbr64 
    48f8:	55                   	push   %rbp
    48f9:	48 89 e5             	mov    %rsp,%rbp
    48fc:	48 83 ec 10          	sub    $0x10,%rsp
    4900:	48 89 7d f8          	mov    %rdi,-0x8(%rbp)
    4904:	48 89 75 f0          	mov    %rsi,-0x10(%rbp)
    4908:	48 83 7d f0 00       	cmpq   $0x0,-0x10(%rbp)
    490d:	74 15                	je     4924 <_ZNSt12_Vector_baseIN8Debugger9addrRangeESaIS1_EE11_M_allocateEm+0x30>
    490f:	48 8b 45 f8          	mov    -0x8(%rbp),%rax
    4913:	48 8b 55 f0          	mov    -0x10(%rbp),%rdx
    4917:	48 89 d6             	mov    %rdx,%rsi
    491a:	48 89 c7             	mov    %rax,%rdi
    491d:	e8 dc 01 00 00       	callq  4afe <_ZNSt16allocator_traitsISaIN8Debugger9addrRangeEEE8allocateERS2_m>
    4922:	eb 05                	jmp    4929 <_ZNSt12_Vector_baseIN8Debugger9addrRangeESaIS1_EE11_M_allocateEm+0x35>
    4924:	b8 00 00 00 00       	mov    $0x0,%eax
    4929:	c9                   	leaveq 
    492a:	c3                   	retq   

000000000000492b <_ZNSt6vectorIN8Debugger9addrRangeESaIS1_EE11_S_relocateEPS1_S4_S4_RS2_>:
    492b:	f3 0f 1e fa          	endbr64 
    492f:	55                   	push   %rbp
    4930:	48 89 e5             	mov    %rsp,%rbp
    4933:	48 83 ec 30          	sub    $0x30,%rsp
    4937:	48 89 7d e8          	mov    %rdi,-0x18(%rbp)
    493b:	48 89 75 e0          	mov    %rsi,-0x20(%rbp)
    493f:	48 89 55 d8          	mov    %rdx,-0x28(%rbp)
    4943:	48 89 4d d0          	mov    %rcx,-0x30(%rbp)
    4947:	64 48 8b 04 25 28 00 	mov    %fs:0x28,%rax
    494e:	00 00 
    4950:	48 89 45 f8          	mov    %rax,-0x8(%rbp)
    4954:	31 c0                	xor    %eax,%eax
    4956:	48 8b 4d d0          	mov    -0x30(%rbp),%rcx
    495a:	48 8b 55 d8          	mov    -0x28(%rbp),%rdx
    495e:	48 8b 75 e0          	mov    -0x20(%rbp),%rsi
    4962:	48 8b 45 e8          	mov    -0x18(%rbp),%rax
    4966:	48 89 c7             	mov    %rax,%rdi
    4969:	e8 be 01 00 00       	callq  4b2c <_ZNSt6vectorIN8Debugger9addrRangeESaIS1_EE14_S_do_relocateEPS1_S4_S4_RS2_St17integral_constantIbLb1EE>
    496e:	48 8b 7d f8          	mov    -0x8(%rbp),%rdi
    4972:	64 48 33 3c 25 28 00 	xor    %fs:0x28,%rdi
    4979:	00 00 
    497b:	74 05                	je     4982 <_ZNSt6vectorIN8Debugger9addrRangeESaIS1_EE11_S_relocateEPS1_S4_S4_RS2_+0x57>
    497d:	e8 3e dc ff ff       	callq  25c0 <__stack_chk_fail@plt>
    4982:	c9                   	leaveq 
    4983:	c3                   	retq   

0000000000004984 <_ZNK9__gnu_cxx17__normal_iteratorIPN8Debugger9addrRangeESt6vectorIS2_SaIS2_EEE4baseEv>:
    4984:	f3 0f 1e fa          	endbr64 
    4988:	55                   	push   %rbp
    4989:	48 89 e5             	mov    %rsp,%rbp
    498c:	48 89 7d f8          	mov    %rdi,-0x8(%rbp)
    4990:	48 8b 45 f8          	mov    -0x8(%rbp),%rax
    4994:	5d                   	pop    %rbp
    4995:	c3                   	retq   

0000000000004996 <_ZSt34__uninitialized_move_if_noexcept_aIPN8Debugger9addrRangeES2_SaIS1_EET0_T_S5_S4_RT1_>:
    4996:	f3 0f 1e fa          	endbr64 
    499a:	55                   	push   %rbp
    499b:	48 89 e5             	mov    %rsp,%rbp
    499e:	53                   	push   %rbx
    499f:	48 83 ec 28          	sub    $0x28,%rsp
    49a3:	48 89 7d e8          	mov    %rdi,-0x18(%rbp)
    49a7:	48 89 75 e0          	mov    %rsi,-0x20(%rbp)
    49ab:	48 89 55 d8          	mov    %rdx,-0x28(%rbp)
    49af:	48 89 4d d0          	mov    %rcx,-0x30(%rbp)
    49b3:	48 8b 45 e0          	mov    -0x20(%rbp),%rax
    49b7:	48 89 c7             	mov    %rax,%rdi
    49ba:	e8 a3 01 00 00       	callq  4b62 <_ZSt32__make_move_if_noexcept_iteratorIN8Debugger9addrRangeESt13move_iteratorIPS1_EET0_PT_>
    49bf:	48 89 c3             	mov    %rax,%rbx
    49c2:	48 8b 45 e8          	mov    -0x18(%rbp),%rax
    49c6:	48 89 c7             	mov    %rax,%rdi
    49c9:	e8 94 01 00 00       	callq  4b62 <_ZSt32__make_move_if_noexcept_iteratorIN8Debugger9addrRangeESt13move_iteratorIPS1_EET0_PT_>
    49ce:	48 89 c7             	mov    %rax,%rdi
    49d1:	48 8b 55 d0          	mov    -0x30(%rbp),%rdx
    49d5:	48 8b 45 d8          	mov    -0x28(%rbp),%rax
    49d9:	48 89 d1             	mov    %rdx,%rcx
    49dc:	48 89 c2             	mov    %rax,%rdx
    49df:	48 89 de             	mov    %rbx,%rsi
    49e2:	e8 c7 01 00 00       	callq  4bae <_ZSt22__uninitialized_copy_aISt13move_iteratorIPN8Debugger9addrRangeEES3_S2_ET0_T_S6_S5_RSaIT1_E>
    49e7:	48 83 c4 28          	add    $0x28,%rsp
    49eb:	5b                   	pop    %rbx
    49ec:	5d                   	pop    %rbp
    49ed:	c3                   	retq   

00000000000049ee <_ZNSt16allocator_traitsISaIN8Debugger9addrRangeEEE7destroyIS1_EEvRS2_PT_>:
    49ee:	f3 0f 1e fa          	endbr64 
    49f2:	55                   	push   %rbp
    49f3:	48 89 e5             	mov    %rsp,%rbp
    49f6:	48 83 ec 10          	sub    $0x10,%rsp
    49fa:	48 89 7d f8          	mov    %rdi,-0x8(%rbp)
    49fe:	48 89 75 f0          	mov    %rsi,-0x10(%rbp)
    4a02:	48 8b 55 f0          	mov    -0x10(%rbp),%rdx
    4a06:	48 8b 45 f8          	mov    -0x8(%rbp),%rax
    4a0a:	48 89 d6             	mov    %rdx,%rsi
    4a0d:	48 89 c7             	mov    %rax,%rdi
    4a10:	e8 cf 01 00 00       	callq  4be4 <_ZN9__gnu_cxx13new_allocatorIN8Debugger9addrRangeEE7destroyIS2_EEvPT_>
    4a15:	90                   	nop
    4a16:	c9                   	leaveq 
    4a17:	c3                   	retq   

0000000000004a18 <_ZNSt7__cxx1112basic_stringIcSt11char_traitsIcESaIcEE16_M_construct_auxIPcEEvT_S7_St12__false_type>:
    4a18:	f3 0f 1e fa          	endbr64 
    4a1c:	55                   	push   %rbp
    4a1d:	48 89 e5             	mov    %rsp,%rbp
    4a20:	48 83 ec 30          	sub    $0x30,%rsp
    4a24:	48 89 7d e8          	mov    %rdi,-0x18(%rbp)
    4a28:	48 89 75 e0          	mov    %rsi,-0x20(%rbp)
    4a2c:	48 89 55 d8          	mov    %rdx,-0x28(%rbp)
    4a30:	64 48 8b 04 25 28 00 	mov    %fs:0x28,%rax
    4a37:	00 00 
    4a39:	48 89 45 f8          	mov    %rax,-0x8(%rbp)
    4a3d:	31 c0                	xor    %eax,%eax
    4a3f:	48 8b 55 d8          	mov    -0x28(%rbp),%rdx
    4a43:	48 8b 4d e0          	mov    -0x20(%rbp),%rcx
    4a47:	48 8b 45 e8          	mov    -0x18(%rbp),%rax
    4a4b:	48 89 ce             	mov    %rcx,%rsi
    4a4e:	48 89 c7             	mov    %rax,%rdi
    4a51:	e8 a2 01 00 00       	callq  4bf8 <_ZNSt7__cxx1112basic_stringIcSt11char_traitsIcESaIcEE12_M_constructIPcEEvT_S7_St20forward_iterator_tag>
    4a56:	90                   	nop
    4a57:	48 8b 45 f8          	mov    -0x8(%rbp),%rax
    4a5b:	64 48 33 04 25 28 00 	xor    %fs:0x28,%rax
    4a62:	00 00 
    4a64:	74 05                	je     4a6b <_ZNSt7__cxx1112basic_stringIcSt11char_traitsIcESaIcEE16_M_construct_auxIPcEEvT_S7_St12__false_type+0x53>
    4a66:	e8 55 db ff ff       	callq  25c0 <__stack_chk_fail@plt>
    4a6b:	c9                   	leaveq 
    4a6c:	c3                   	retq   

0000000000004a6d <_ZNSt12_Destroy_auxILb1EE9__destroyIPN8Debugger9addrRangeEEEvT_S5_>:
    4a6d:	f3 0f 1e fa          	endbr64 
    4a71:	55                   	push   %rbp
    4a72:	48 89 e5             	mov    %rsp,%rbp
    4a75:	48 89 7d f8          	mov    %rdi,-0x8(%rbp)
    4a79:	48 89 75 f0          	mov    %rsi,-0x10(%rbp)
    4a7d:	90                   	nop
    4a7e:	5d                   	pop    %rbp
    4a7f:	c3                   	retq   

0000000000004a80 <_ZN9__gnu_cxx13new_allocatorIN8Debugger9addrRangeEE10deallocateEPS2_m>:
    4a80:	f3 0f 1e fa          	endbr64 
    4a84:	55                   	push   %rbp
    4a85:	48 89 e5             	mov    %rsp,%rbp
    4a88:	48 83 ec 20          	sub    $0x20,%rsp
    4a8c:	48 89 7d f8          	mov    %rdi,-0x8(%rbp)
    4a90:	48 89 75 f0          	mov    %rsi,-0x10(%rbp)
    4a94:	48 89 55 e8          	mov    %rdx,-0x18(%rbp)
    4a98:	48 8b 45 f0          	mov    -0x10(%rbp),%rax
    4a9c:	48 89 c7             	mov    %rax,%rdi
    4a9f:	e8 8c da ff ff       	callq  2530 <_ZdlPv@plt>
    4aa4:	90                   	nop
    4aa5:	c9                   	leaveq 
    4aa6:	c3                   	retq   

0000000000004aa7 <_ZNSt20__uninitialized_copyILb1EE13__uninit_copyIN9__gnu_cxx17__normal_iteratorIPKN8Debugger9addrRangeESt6vectorIS5_SaIS5_EEEEPS5_EET0_T_SE_SD_>:
    4aa7:	f3 0f 1e fa          	endbr64 
    4aab:	55                   	push   %rbp
    4aac:	48 89 e5             	mov    %rsp,%rbp
    4aaf:	48 83 ec 20          	sub    $0x20,%rsp
    4ab3:	48 89 7d f8          	mov    %rdi,-0x8(%rbp)
    4ab7:	48 89 75 f0          	mov    %rsi,-0x10(%rbp)
    4abb:	48 89 55 e8          	mov    %rdx,-0x18(%rbp)
    4abf:	48 8b 55 e8          	mov    -0x18(%rbp),%rdx
    4ac3:	48 8b 4d f0          	mov    -0x10(%rbp),%rcx
    4ac7:	48 8b 45 f8          	mov    -0x8(%rbp),%rax
    4acb:	48 89 ce             	mov    %rcx,%rsi
    4ace:	48 89 c7             	mov    %rax,%rdi
    4ad1:	e8 65 02 00 00       	callq  4d3b <_ZSt4copyIN9__gnu_cxx17__normal_iteratorIPKN8Debugger9addrRangeESt6vectorIS3_SaIS3_EEEEPS3_ET0_T_SC_SB_>
    4ad6:	c9                   	leaveq 
    4ad7:	c3                   	retq   

0000000000004ad8 <_ZNKSt6vectorIN8Debugger9addrRangeESaIS1_EE8max_sizeEv>:
    4ad8:	f3 0f 1e fa          	endbr64 
    4adc:	55                   	push   %rbp
    4add:	48 89 e5             	mov    %rsp,%rbp
    4ae0:	48 83 ec 10          	sub    $0x10,%rsp
    4ae4:	48 89 7d f8          	mov    %rdi,-0x8(%rbp)
    4ae8:	48 8b 45 f8          	mov    -0x8(%rbp),%rax
    4aec:	48 89 c7             	mov    %rax,%rdi
    4aef:	e8 76 f3 ff ff       	callq  3e6a <_ZNKSt12_Vector_baseIN8Debugger9addrRangeESaIS1_EE19_M_get_Tp_allocatorEv>
    4af4:	48 89 c7             	mov    %rax,%rdi
    4af7:	e8 8f 02 00 00       	callq  4d8b <_ZNSt6vectorIN8Debugger9addrRangeESaIS1_EE11_S_max_sizeERKS2_>
    4afc:	c9                   	leaveq 
    4afd:	c3                   	retq   

0000000000004afe <_ZNSt16allocator_traitsISaIN8Debugger9addrRangeEEE8allocateERS2_m>:
    4afe:	f3 0f 1e fa          	endbr64 
    4b02:	55                   	push   %rbp
    4b03:	48 89 e5             	mov    %rsp,%rbp
    4b06:	48 83 ec 10          	sub    $0x10,%rsp
    4b0a:	48 89 7d f8          	mov    %rdi,-0x8(%rbp)
    4b0e:	48 89 75 f0          	mov    %rsi,-0x10(%rbp)
    4b12:	48 8b 4d f0          	mov    -0x10(%rbp),%rcx
    4b16:	48 8b 45 f8          	mov    -0x8(%rbp),%rax
    4b1a:	ba 00 00 00 00       	mov    $0x0,%edx
    4b1f:	48 89 ce             	mov    %rcx,%rsi
    4b22:	48 89 c7             	mov    %rax,%rdi
    4b25:	e8 ca 02 00 00       	callq  4df4 <_ZN9__gnu_cxx13new_allocatorIN8Debugger9addrRangeEE8allocateEmPKv>
    4b2a:	c9                   	leaveq 
    4b2b:	c3                   	retq   

0000000000004b2c <_ZNSt6vectorIN8Debugger9addrRangeESaIS1_EE14_S_do_relocateEPS1_S4_S4_RS2_St17integral_constantIbLb1EE>:
    4b2c:	f3 0f 1e fa          	endbr64 
    4b30:	55                   	push   %rbp
    4b31:	48 89 e5             	mov    %rsp,%rbp
    4b34:	48 83 ec 20          	sub    $0x20,%rsp
    4b38:	48 89 7d f8          	mov    %rdi,-0x8(%rbp)
    4b3c:	48 89 75 f0          	mov    %rsi,-0x10(%rbp)
    4b40:	48 89 55 e8          	mov    %rdx,-0x18(%rbp)
    4b44:	48 89 4d e0          	mov    %rcx,-0x20(%rbp)
    4b48:	48 8b 4d e0          	mov    -0x20(%rbp),%rcx
    4b4c:	48 8b 55 e8          	mov    -0x18(%rbp),%rdx
    4b50:	48 8b 75 f0          	mov    -0x10(%rbp),%rsi
    4b54:	48 8b 45 f8          	mov    -0x8(%rbp),%rax
    4b58:	48 89 c7             	mov    %rax,%rdi
    4b5b:	e8 eb 02 00 00       	callq  4e4b <_ZSt12__relocate_aIPN8Debugger9addrRangeES2_SaIS1_EET0_T_S5_S4_RT1_>
    4b60:	c9                   	leaveq 
    4b61:	c3                   	retq   

0000000000004b62 <_ZSt32__make_move_if_noexcept_iteratorIN8Debugger9addrRangeESt13move_iteratorIPS1_EET0_PT_>:
    4b62:	f3 0f 1e fa          	endbr64 
    4b66:	55                   	push   %rbp
    4b67:	48 89 e5             	mov    %rsp,%rbp
    4b6a:	48 83 ec 20          	sub    $0x20,%rsp
    4b6e:	48 89 7d e8          	mov    %rdi,-0x18(%rbp)
    4b72:	64 48 8b 04 25 28 00 	mov    %fs:0x28,%rax
    4b79:	00 00 
    4b7b:	48 89 45 f8          	mov    %rax,-0x8(%rbp)
    4b7f:	31 c0                	xor    %eax,%eax
    4b81:	48 8b 55 e8          	mov    -0x18(%rbp),%rdx
    4b85:	48 8d 45 f0          	lea    -0x10(%rbp),%rax
    4b89:	48 89 d6             	mov    %rdx,%rsi
    4b8c:	48 89 c7             	mov    %rax,%rdi
    4b8f:	e8 1e 03 00 00       	callq  4eb2 <_ZNSt13move_iteratorIPN8Debugger9addrRangeEEC1ES2_>
    4b94:	48 8b 45 f0          	mov    -0x10(%rbp),%rax
    4b98:	48 8b 4d f8          	mov    -0x8(%rbp),%rcx
    4b9c:	64 48 33 0c 25 28 00 	xor    %fs:0x28,%rcx
    4ba3:	00 00 
    4ba5:	74 05                	je     4bac <_ZSt32__make_move_if_noexcept_iteratorIN8Debugger9addrRangeESt13move_iteratorIPS1_EET0_PT_+0x4a>
    4ba7:	e8 14 da ff ff       	callq  25c0 <__stack_chk_fail@plt>
    4bac:	c9                   	leaveq 
    4bad:	c3                   	retq   

0000000000004bae <_ZSt22__uninitialized_copy_aISt13move_iteratorIPN8Debugger9addrRangeEES3_S2_ET0_T_S6_S5_RSaIT1_E>:
    4bae:	f3 0f 1e fa          	endbr64 
    4bb2:	55                   	push   %rbp
    4bb3:	48 89 e5             	mov    %rsp,%rbp
    4bb6:	48 83 ec 20          	sub    $0x20,%rsp
    4bba:	48 89 7d f8          	mov    %rdi,-0x8(%rbp)
    4bbe:	48 89 75 f0          	mov    %rsi,-0x10(%rbp)
    4bc2:	48 89 55 e8          	mov    %rdx,-0x18(%rbp)
    4bc6:	48 89 4d e0          	mov    %rcx,-0x20(%rbp)
    4bca:	48 8b 55 e8          	mov    -0x18(%rbp),%rdx
    4bce:	48 8b 4d f0          	mov    -0x10(%rbp),%rcx
    4bd2:	48 8b 45 f8          	mov    -0x8(%rbp),%rax
    4bd6:	48 89 ce             	mov    %rcx,%rsi
    4bd9:	48 89 c7             	mov    %rax,%rdi
    4bdc:	e8 ef 02 00 00       	callq  4ed0 <_ZSt18uninitialized_copyISt13move_iteratorIPN8Debugger9addrRangeEES3_ET0_T_S6_S5_>
    4be1:	c9                   	leaveq 
    4be2:	c3                   	retq   
    4be3:	90                   	nop

0000000000004be4 <_ZN9__gnu_cxx13new_allocatorIN8Debugger9addrRangeEE7destroyIS2_EEvPT_>:
    4be4:	f3 0f 1e fa          	endbr64 
    4be8:	55                   	push   %rbp
    4be9:	48 89 e5             	mov    %rsp,%rbp
    4bec:	48 89 7d f8          	mov    %rdi,-0x8(%rbp)
    4bf0:	48 89 75 f0          	mov    %rsi,-0x10(%rbp)
    4bf4:	90                   	nop
    4bf5:	5d                   	pop    %rbp
    4bf6:	c3                   	retq   
    4bf7:	90                   	nop

0000000000004bf8 <_ZNSt7__cxx1112basic_stringIcSt11char_traitsIcESaIcEE12_M_constructIPcEEvT_S7_St20forward_iterator_tag>:
    4bf8:	f3 0f 1e fa          	endbr64 
    4bfc:	55                   	push   %rbp
    4bfd:	48 89 e5             	mov    %rsp,%rbp
    4c00:	53                   	push   %rbx
    4c01:	48 83 ec 38          	sub    $0x38,%rsp
    4c05:	48 89 7d d8          	mov    %rdi,-0x28(%rbp)
    4c09:	48 89 75 d0          	mov    %rsi,-0x30(%rbp)
    4c0d:	48 89 55 c8          	mov    %rdx,-0x38(%rbp)
    4c11:	64 48 8b 04 25 28 00 	mov    %fs:0x28,%rax
    4c18:	00 00 
    4c1a:	48 89 45 e8          	mov    %rax,-0x18(%rbp)
    4c1e:	31 c0                	xor    %eax,%eax
    4c20:	48 8b 45 d0          	mov    -0x30(%rbp),%rax
    4c24:	48 89 c7             	mov    %rax,%rdi
    4c27:	e8 d9 02 00 00       	callq  4f05 <_ZN9__gnu_cxx17__is_null_pointerIcEEbPT_>
    4c2c:	84 c0                	test   %al,%al
    4c2e:	74 11                	je     4c41 <_ZNSt7__cxx1112basic_stringIcSt11char_traitsIcESaIcEE12_M_constructIPcEEvT_S7_St20forward_iterator_tag+0x49>
    4c30:	48 8b 45 d0          	mov    -0x30(%rbp),%rax
    4c34:	48 3b 45 c8          	cmp    -0x38(%rbp),%rax
    4c38:	74 07                	je     4c41 <_ZNSt7__cxx1112basic_stringIcSt11char_traitsIcESaIcEE12_M_constructIPcEEvT_S7_St20forward_iterator_tag+0x49>
    4c3a:	b8 01 00 00 00       	mov    $0x1,%eax
    4c3f:	eb 05                	jmp    4c46 <_ZNSt7__cxx1112basic_stringIcSt11char_traitsIcESaIcEE12_M_constructIPcEEvT_S7_St20forward_iterator_tag+0x4e>
    4c41:	b8 00 00 00 00       	mov    $0x0,%eax
    4c46:	84 c0                	test   %al,%al
    4c48:	74 0c                	je     4c56 <_ZNSt7__cxx1112basic_stringIcSt11char_traitsIcESaIcEE12_M_constructIPcEEvT_S7_St20forward_iterator_tag+0x5e>
    4c4a:	48 8d 3d f7 15 00 00 	lea    0x15f7(%rip),%rdi        # 6248 <_ZNSt8__detailL19_S_invalid_state_idE+0x198>
    4c51:	e8 4a d8 ff ff       	callq  24a0 <_ZSt19__throw_logic_errorPKc@plt>
    4c56:	48 8b 55 c8          	mov    -0x38(%rbp),%rdx
    4c5a:	48 8b 45 d0          	mov    -0x30(%rbp),%rax
    4c5e:	48 89 d6             	mov    %rdx,%rsi
    4c61:	48 89 c7             	mov    %rax,%rdi
    4c64:	e8 b2 02 00 00       	callq  4f1b <_ZSt8distanceIPcENSt15iterator_traitsIT_E15difference_typeES2_S2_>
    4c69:	48 89 45 e0          	mov    %rax,-0x20(%rbp)
    4c6d:	48 8b 45 e0          	mov    -0x20(%rbp),%rax
    4c71:	48 83 f8 0f          	cmp    $0xf,%rax
    4c75:	76 3d                	jbe    4cb4 <_ZNSt7__cxx1112basic_stringIcSt11char_traitsIcESaIcEE12_M_constructIPcEEvT_S7_St20forward_iterator_tag+0xbc>
    4c77:	48 8d 4d e0          	lea    -0x20(%rbp),%rcx
    4c7b:	48 8b 45 d8          	mov    -0x28(%rbp),%rax
    4c7f:	ba 00 00 00 00       	mov    $0x0,%edx
    4c84:	48 89 ce             	mov    %rcx,%rsi
    4c87:	48 89 c7             	mov    %rax,%rdi
    4c8a:	e8 51 da ff ff       	callq  26e0 <_ZNSt7__cxx1112basic_stringIcSt11char_traitsIcESaIcEE9_M_createERmm@plt>
    4c8f:	48 89 c2             	mov    %rax,%rdx
    4c92:	48 8b 45 d8          	mov    -0x28(%rbp),%rax
    4c96:	48 89 d6             	mov    %rdx,%rsi
    4c99:	48 89 c7             	mov    %rax,%rdi
    4c9c:	e8 2f d8 ff ff       	callq  24d0 <_ZNSt7__cxx1112basic_stringIcSt11char_traitsIcESaIcEE7_M_dataEPc@plt>
    4ca1:	48 8b 55 e0          	mov    -0x20(%rbp),%rdx
    4ca5:	48 8b 45 d8          	mov    -0x28(%rbp),%rax
    4ca9:	48 89 d6             	mov    %rdx,%rsi
    4cac:	48 89 c7             	mov    %rax,%rdi
    4caf:	e8 7c da ff ff       	callq  2730 <_ZNSt7__cxx1112basic_stringIcSt11char_traitsIcESaIcEE11_M_capacityEm@plt>
    4cb4:	48 8b 45 d8          	mov    -0x28(%rbp),%rax
    4cb8:	48 89 c7             	mov    %rax,%rdi
    4cbb:	e8 f0 d8 ff ff       	callq  25b0 <_ZNKSt7__cxx1112basic_stringIcSt11char_traitsIcESaIcEE7_M_dataEv@plt>
    4cc0:	48 89 c1             	mov    %rax,%rcx
    4cc3:	48 8b 55 c8          	mov    -0x38(%rbp),%rdx
    4cc7:	48 8b 45 d0          	mov    -0x30(%rbp),%rax
    4ccb:	48 89 c6             	mov    %rax,%rsi
    4cce:	48 89 cf             	mov    %rcx,%rdi
    4cd1:	e8 2a d7 ff ff       	callq  2400 <_ZNSt7__cxx1112basic_stringIcSt11char_traitsIcESaIcEE13_S_copy_charsEPcS5_S5_@plt>
    4cd6:	48 8b 55 e0          	mov    -0x20(%rbp),%rdx
    4cda:	48 8b 45 d8          	mov    -0x28(%rbp),%rax
    4cde:	48 89 d6             	mov    %rdx,%rsi
    4ce1:	48 89 c7             	mov    %rax,%rdi
    4ce4:	e8 97 d7 ff ff       	callq  2480 <_ZNSt7__cxx1112basic_stringIcSt11char_traitsIcESaIcEE13_M_set_lengthEm@plt>
    4ce9:	90                   	nop
    4cea:	48 8b 45 e8          	mov    -0x18(%rbp),%rax
    4cee:	64 48 33 04 25 28 00 	xor    %fs:0x28,%rax
    4cf5:	00 00 
    4cf7:	74 3b                	je     4d34 <_ZNSt7__cxx1112basic_stringIcSt11char_traitsIcESaIcEE12_M_constructIPcEEvT_S7_St20forward_iterator_tag+0x13c>
    4cf9:	eb 34                	jmp    4d2f <_ZNSt7__cxx1112basic_stringIcSt11char_traitsIcESaIcEE12_M_constructIPcEEvT_S7_St20forward_iterator_tag+0x137>
    4cfb:	f3 0f 1e fa          	endbr64 
    4cff:	48 89 c7             	mov    %rax,%rdi
    4d02:	e8 19 d7 ff ff       	callq  2420 <__cxa_begin_catch@plt>
    4d07:	48 8b 45 d8          	mov    -0x28(%rbp),%rax
    4d0b:	48 89 c7             	mov    %rax,%rdi
    4d0e:	e8 dd d8 ff ff       	callq  25f0 <_ZNSt7__cxx1112basic_stringIcSt11char_traitsIcESaIcEE10_M_disposeEv@plt>
    4d13:	e8 48 d9 ff ff       	callq  2660 <__cxa_rethrow@plt>
    4d18:	f3 0f 1e fa          	endbr64 
    4d1c:	48 89 c3             	mov    %rax,%rbx
    4d1f:	e8 8c d9 ff ff       	callq  26b0 <__cxa_end_catch@plt>
    4d24:	48 89 d8             	mov    %rbx,%rax
    4d27:	48 89 c7             	mov    %rax,%rdi
    4d2a:	e8 91 d9 ff ff       	callq  26c0 <_Unwind_Resume@plt>
    4d2f:	e8 8c d8 ff ff       	callq  25c0 <__stack_chk_fail@plt>
    4d34:	48 83 c4 38          	add    $0x38,%rsp
    4d38:	5b                   	pop    %rbx
    4d39:	5d                   	pop    %rbp
    4d3a:	c3                   	retq   

0000000000004d3b <_ZSt4copyIN9__gnu_cxx17__normal_iteratorIPKN8Debugger9addrRangeESt6vectorIS3_SaIS3_EEEEPS3_ET0_T_SC_SB_>:
    4d3b:	f3 0f 1e fa          	endbr64 
    4d3f:	55                   	push   %rbp
    4d40:	48 89 e5             	mov    %rsp,%rbp
    4d43:	53                   	push   %rbx
    4d44:	48 83 ec 28          	sub    $0x28,%rsp
    4d48:	48 89 7d e8          	mov    %rdi,-0x18(%rbp)
    4d4c:	48 89 75 e0          	mov    %rsi,-0x20(%rbp)
    4d50:	48 89 55 d8          	mov    %rdx,-0x28(%rbp)
    4d54:	48 8b 45 e0          	mov    -0x20(%rbp),%rax
    4d58:	48 89 c7             	mov    %rax,%rdi
    4d5b:	e8 13 02 00 00       	callq  4f73 <_ZSt12__miter_baseIN9__gnu_cxx17__normal_iteratorIPKN8Debugger9addrRangeESt6vectorIS3_SaIS3_EEEEET_SA_>
    4d60:	48 89 c3             	mov    %rax,%rbx
    4d63:	48 8b 45 e8          	mov    -0x18(%rbp),%rax
    4d67:	48 89 c7             	mov    %rax,%rdi
    4d6a:	e8 04 02 00 00       	callq  4f73 <_ZSt12__miter_baseIN9__gnu_cxx17__normal_iteratorIPKN8Debugger9addrRangeESt6vectorIS3_SaIS3_EEEEET_SA_>
    4d6f:	48 89 c1             	mov    %rax,%rcx
    4d72:	48 8b 45 d8          	mov    -0x28(%rbp),%rax
    4d76:	48 89 c2             	mov    %rax,%rdx
    4d79:	48 89 de             	mov    %rbx,%rsi
    4d7c:	48 89 cf             	mov    %rcx,%rdi
    4d7f:	e8 01 02 00 00       	callq  4f85 <_ZSt14__copy_move_a2ILb0EN9__gnu_cxx17__normal_iteratorIPKN8Debugger9addrRangeESt6vectorIS3_SaIS3_EEEEPS3_ET1_T0_SC_SB_>
    4d84:	48 83 c4 28          	add    $0x28,%rsp
    4d88:	5b                   	pop    %rbx
    4d89:	5d                   	pop    %rbp
    4d8a:	c3                   	retq   

0000000000004d8b <_ZNSt6vectorIN8Debugger9addrRangeESaIS1_EE11_S_max_sizeERKS2_>:
    4d8b:	f3 0f 1e fa          	endbr64 
    4d8f:	55                   	push   %rbp
    4d90:	48 89 e5             	mov    %rsp,%rbp
    4d93:	48 83 ec 30          	sub    $0x30,%rsp
    4d97:	48 89 7d d8          	mov    %rdi,-0x28(%rbp)
    4d9b:	64 48 8b 04 25 28 00 	mov    %fs:0x28,%rax
    4da2:	00 00 
    4da4:	48 89 45 f8          	mov    %rax,-0x8(%rbp)
    4da8:	31 c0                	xor    %eax,%eax
    4daa:	48 b8 ce c7 e0 7c 0c 	movabs $0xc7ce0c7ce0c7ce,%rax
    4db1:	ce c7 00 
    4db4:	48 89 45 e8          	mov    %rax,-0x18(%rbp)
    4db8:	48 8b 45 d8          	mov    -0x28(%rbp),%rax
    4dbc:	48 89 c7             	mov    %rax,%rdi
    4dbf:	e8 2f 02 00 00       	callq  4ff3 <_ZNSt16allocator_traitsISaIN8Debugger9addrRangeEEE8max_sizeERKS2_>
    4dc4:	48 89 45 f0          	mov    %rax,-0x10(%rbp)
    4dc8:	48 8d 55 f0          	lea    -0x10(%rbp),%rdx
    4dcc:	48 8d 45 e8          	lea    -0x18(%rbp),%rax
    4dd0:	48 89 d6             	mov    %rdx,%rsi
    4dd3:	48 89 c7             	mov    %rax,%rdi
    4dd6:	e8 96 db ff ff       	callq  2971 <_ZSt3minImERKT_S2_S2_>
    4ddb:	48 8b 00             	mov    (%rax),%rax
    4dde:	48 8b 4d f8          	mov    -0x8(%rbp),%rcx
    4de2:	64 48 33 0c 25 28 00 	xor    %fs:0x28,%rcx
    4de9:	00 00 
    4deb:	74 05                	je     4df2 <_ZNSt6vectorIN8Debugger9addrRangeESaIS1_EE11_S_max_sizeERKS2_+0x67>
    4ded:	e8 ce d7 ff ff       	callq  25c0 <__stack_chk_fail@plt>
    4df2:	c9                   	leaveq 
    4df3:	c3                   	retq   

0000000000004df4 <_ZN9__gnu_cxx13new_allocatorIN8Debugger9addrRangeEE8allocateEmPKv>:
    4df4:	f3 0f 1e fa          	endbr64 
    4df8:	55                   	push   %rbp
    4df9:	48 89 e5             	mov    %rsp,%rbp
    4dfc:	48 83 ec 20          	sub    $0x20,%rsp
    4e00:	48 89 7d f8          	mov    %rdi,-0x8(%rbp)
    4e04:	48 89 75 f0          	mov    %rsi,-0x10(%rbp)
    4e08:	48 89 55 e8          	mov    %rdx,-0x18(%rbp)
    4e0c:	48 8b 45 f8          	mov    -0x8(%rbp),%rax
    4e10:	48 89 c7             	mov    %rax,%rdi
    4e13:	e8 fa 01 00 00       	callq  5012 <_ZNK9__gnu_cxx13new_allocatorIN8Debugger9addrRangeEE8max_sizeEv>
    4e18:	48 39 45 f0          	cmp    %rax,-0x10(%rbp)
    4e1c:	0f 97 c0             	seta   %al
    4e1f:	84 c0                	test   %al,%al
    4e21:	74 05                	je     4e28 <_ZN9__gnu_cxx13new_allocatorIN8Debugger9addrRangeEE8allocateEmPKv+0x34>
    4e23:	e8 e8 d5 ff ff       	callq  2410 <_ZSt17__throw_bad_allocv@plt>
    4e28:	48 8b 55 f0          	mov    -0x10(%rbp),%rdx
    4e2c:	48 89 d0             	mov    %rdx,%rax
    4e2f:	48 c1 e0 02          	shl    $0x2,%rax
    4e33:	48 01 d0             	add    %rdx,%rax
    4e36:	48 c1 e0 03          	shl    $0x3,%rax
    4e3a:	48 01 d0             	add    %rdx,%rax
    4e3d:	48 c1 e0 02          	shl    $0x2,%rax
    4e41:	48 89 c7             	mov    %rax,%rdi
    4e44:	e8 17 d7 ff ff       	callq  2560 <_Znwm@plt>
    4e49:	c9                   	leaveq 
    4e4a:	c3                   	retq   

0000000000004e4b <_ZSt12__relocate_aIPN8Debugger9addrRangeES2_SaIS1_EET0_T_S5_S4_RT1_>:
    4e4b:	f3 0f 1e fa          	endbr64 
    4e4f:	55                   	push   %rbp
    4e50:	48 89 e5             	mov    %rsp,%rbp
    4e53:	41 54                	push   %r12
    4e55:	53                   	push   %rbx
    4e56:	48 83 ec 20          	sub    $0x20,%rsp
    4e5a:	48 89 7d e8          	mov    %rdi,-0x18(%rbp)
    4e5e:	48 89 75 e0          	mov    %rsi,-0x20(%rbp)
    4e62:	48 89 55 d8          	mov    %rdx,-0x28(%rbp)
    4e66:	48 89 4d d0          	mov    %rcx,-0x30(%rbp)
    4e6a:	48 8b 45 d8          	mov    -0x28(%rbp),%rax
    4e6e:	48 89 c7             	mov    %rax,%rdi
    4e71:	e8 b4 01 00 00       	callq  502a <_ZSt12__niter_baseIPN8Debugger9addrRangeEET_S3_>
    4e76:	49 89 c4             	mov    %rax,%r12
    4e79:	48 8b 45 e0          	mov    -0x20(%rbp),%rax
    4e7d:	48 89 c7             	mov    %rax,%rdi
    4e80:	e8 a5 01 00 00       	callq  502a <_ZSt12__niter_baseIPN8Debugger9addrRangeEET_S3_>
    4e85:	48 89 c3             	mov    %rax,%rbx
    4e88:	48 8b 45 e8          	mov    -0x18(%rbp),%rax
    4e8c:	48 89 c7             	mov    %rax,%rdi
    4e8f:	e8 96 01 00 00       	callq  502a <_ZSt12__niter_baseIPN8Debugger9addrRangeEET_S3_>
    4e94:	48 89 c7             	mov    %rax,%rdi
    4e97:	48 8b 45 d0          	mov    -0x30(%rbp),%rax
    4e9b:	48 89 c1             	mov    %rax,%rcx
    4e9e:	4c 89 e2             	mov    %r12,%rdx
    4ea1:	48 89 de             	mov    %rbx,%rsi
    4ea4:	e8 93 01 00 00       	callq  503c <_ZSt14__relocate_a_1IN8Debugger9addrRangeES1_ENSt9enable_ifIXsrSt24__is_bitwise_relocatableIT_vE5valueEPS4_E4typeES6_S6_S6_RSaIT0_E>
    4ea9:	48 83 c4 20          	add    $0x20,%rsp
    4ead:	5b                   	pop    %rbx
    4eae:	41 5c                	pop    %r12
    4eb0:	5d                   	pop    %rbp
    4eb1:	c3                   	retq   

0000000000004eb2 <_ZNSt13move_iteratorIPN8Debugger9addrRangeEEC1ES2_>:
    4eb2:	f3 0f 1e fa          	endbr64 
    4eb6:	55                   	push   %rbp
    4eb7:	48 89 e5             	mov    %rsp,%rbp
    4eba:	48 89 7d f8          	mov    %rdi,-0x8(%rbp)
    4ebe:	48 89 75 f0          	mov    %rsi,-0x10(%rbp)
    4ec2:	48 8b 45 f8          	mov    -0x8(%rbp),%rax
    4ec6:	48 8b 55 f0          	mov    -0x10(%rbp),%rdx
    4eca:	48 89 10             	mov    %rdx,(%rax)
    4ecd:	90                   	nop
    4ece:	5d                   	pop    %rbp
    4ecf:	c3                   	retq   

0000000000004ed0 <_ZSt18uninitialized_copyISt13move_iteratorIPN8Debugger9addrRangeEES3_ET0_T_S6_S5_>:
    4ed0:	f3 0f 1e fa          	endbr64 
    4ed4:	55                   	push   %rbp
    4ed5:	48 89 e5             	mov    %rsp,%rbp
    4ed8:	48 83 ec 30          	sub    $0x30,%rsp
    4edc:	48 89 7d e8          	mov    %rdi,-0x18(%rbp)
    4ee0:	48 89 75 e0          	mov    %rsi,-0x20(%rbp)
    4ee4:	48 89 55 d8          	mov    %rdx,-0x28(%rbp)
    4ee8:	c6 45 ff 01          	movb   $0x1,-0x1(%rbp)
    4eec:	48 8b 55 d8          	mov    -0x28(%rbp),%rdx
    4ef0:	48 8b 4d e0          	mov    -0x20(%rbp),%rcx
    4ef4:	48 8b 45 e8          	mov    -0x18(%rbp),%rax
    4ef8:	48 89 ce             	mov    %rcx,%rsi
    4efb:	48 89 c7             	mov    %rax,%rdi
    4efe:	e8 d1 01 00 00       	callq  50d4 <_ZNSt20__uninitialized_copyILb1EE13__uninit_copyISt13move_iteratorIPN8Debugger9addrRangeEES5_EET0_T_S8_S7_>
    4f03:	c9                   	leaveq 
    4f04:	c3                   	retq   

0000000000004f05 <_ZN9__gnu_cxx17__is_null_pointerIcEEbPT_>:
    4f05:	f3 0f 1e fa          	endbr64 
    4f09:	55                   	push   %rbp
    4f0a:	48 89 e5             	mov    %rsp,%rbp
    4f0d:	48 89 7d f8          	mov    %rdi,-0x8(%rbp)
    4f11:	48 83 7d f8 00       	cmpq   $0x0,-0x8(%rbp)
    4f16:	0f 94 c0             	sete   %al
    4f19:	5d                   	pop    %rbp
    4f1a:	c3                   	retq   

0000000000004f1b <_ZSt8distanceIPcENSt15iterator_traitsIT_E15difference_typeES2_S2_>:
    4f1b:	f3 0f 1e fa          	endbr64 
    4f1f:	55                   	push   %rbp
    4f20:	48 89 e5             	mov    %rsp,%rbp
    4f23:	48 83 ec 20          	sub    $0x20,%rsp
    4f27:	48 89 7d e8          	mov    %rdi,-0x18(%rbp)
    4f2b:	48 89 75 e0          	mov    %rsi,-0x20(%rbp)
    4f2f:	64 48 8b 04 25 28 00 	mov    %fs:0x28,%rax
    4f36:	00 00 
    4f38:	48 89 45 f8          	mov    %rax,-0x8(%rbp)
    4f3c:	31 c0                	xor    %eax,%eax
    4f3e:	48 8d 45 e8          	lea    -0x18(%rbp),%rax
    4f42:	48 89 c7             	mov    %rax,%rdi
    4f45:	e8 bb 01 00 00       	callq  5105 <_ZSt19__iterator_categoryIPcENSt15iterator_traitsIT_E17iterator_categoryERKS2_>
    4f4a:	48 8b 45 e8          	mov    -0x18(%rbp),%rax
    4f4e:	48 8b 55 e0          	mov    -0x20(%rbp),%rdx
    4f52:	48 89 d6             	mov    %rdx,%rsi
    4f55:	48 89 c7             	mov    %rax,%rdi
    4f58:	e8 b6 01 00 00       	callq  5113 <_ZSt10__distanceIPcENSt15iterator_traitsIT_E15difference_typeES2_S2_St26random_access_iterator_tag>
    4f5d:	48 8b 4d f8          	mov    -0x8(%rbp),%rcx
    4f61:	64 48 33 0c 25 28 00 	xor    %fs:0x28,%rcx
    4f68:	00 00 
    4f6a:	74 05                	je     4f71 <_ZSt8distanceIPcENSt15iterator_traitsIT_E15difference_typeES2_S2_+0x56>
    4f6c:	e8 4f d6 ff ff       	callq  25c0 <__stack_chk_fail@plt>
    4f71:	c9                   	leaveq 
    4f72:	c3                   	retq   

0000000000004f73 <_ZSt12__miter_baseIN9__gnu_cxx17__normal_iteratorIPKN8Debugger9addrRangeESt6vectorIS3_SaIS3_EEEEET_SA_>:
    4f73:	f3 0f 1e fa          	endbr64 
    4f77:	55                   	push   %rbp
    4f78:	48 89 e5             	mov    %rsp,%rbp
    4f7b:	48 89 7d f8          	mov    %rdi,-0x8(%rbp)
    4f7f:	48 8b 45 f8          	mov    -0x8(%rbp),%rax
    4f83:	5d                   	pop    %rbp
    4f84:	c3                   	retq   

0000000000004f85 <_ZSt14__copy_move_a2ILb0EN9__gnu_cxx17__normal_iteratorIPKN8Debugger9addrRangeESt6vectorIS3_SaIS3_EEEEPS3_ET1_T0_SC_SB_>:
    4f85:	f3 0f 1e fa          	endbr64 
    4f89:	55                   	push   %rbp
    4f8a:	48 89 e5             	mov    %rsp,%rbp
    4f8d:	41 54                	push   %r12
    4f8f:	53                   	push   %rbx
    4f90:	48 83 ec 20          	sub    $0x20,%rsp
    4f94:	48 89 7d e8          	mov    %rdi,-0x18(%rbp)
    4f98:	48 89 75 e0          	mov    %rsi,-0x20(%rbp)
    4f9c:	48 89 55 d8          	mov    %rdx,-0x28(%rbp)
    4fa0:	48 8b 45 d8          	mov    -0x28(%rbp),%rax
    4fa4:	48 89 c7             	mov    %rax,%rdi
    4fa7:	e8 7e 00 00 00       	callq  502a <_ZSt12__niter_baseIPN8Debugger9addrRangeEET_S3_>
    4fac:	49 89 c4             	mov    %rax,%r12
    4faf:	48 8b 45 e0          	mov    -0x20(%rbp),%rax
    4fb3:	48 89 c7             	mov    %rax,%rdi
    4fb6:	e8 72 01 00 00       	callq  512d <_ZSt12__niter_baseIPKN8Debugger9addrRangeESt6vectorIS1_SaIS1_EEET_N9__gnu_cxx17__normal_iteratorIS7_T0_EE>
    4fbb:	48 89 c3             	mov    %rax,%rbx
    4fbe:	48 8b 45 e8          	mov    -0x18(%rbp),%rax
    4fc2:	48 89 c7             	mov    %rax,%rdi
    4fc5:	e8 63 01 00 00       	callq  512d <_ZSt12__niter_baseIPKN8Debugger9addrRangeESt6vectorIS1_SaIS1_EEET_N9__gnu_cxx17__normal_iteratorIS7_T0_EE>
    4fca:	4c 89 e2             	mov    %r12,%rdx
    4fcd:	48 89 de             	mov    %rbx,%rsi
    4fd0:	48 89 c7             	mov    %rax,%rdi
    4fd3:	e8 76 01 00 00       	callq  514e <_ZSt13__copy_move_aILb0EPKN8Debugger9addrRangeEPS1_ET1_T0_S6_S5_>
    4fd8:	48 89 c2             	mov    %rax,%rdx
    4fdb:	48 8d 45 d8          	lea    -0x28(%rbp),%rax
    4fdf:	48 89 d6             	mov    %rdx,%rsi
    4fe2:	48 89 c7             	mov    %rax,%rdi
    4fe5:	e8 99 01 00 00       	callq  5183 <_ZSt12__niter_wrapIPN8Debugger9addrRangeEET_RKS3_S3_>
    4fea:	48 83 c4 20          	add    $0x20,%rsp
    4fee:	5b                   	pop    %rbx
    4fef:	41 5c                	pop    %r12
    4ff1:	5d                   	pop    %rbp
    4ff2:	c3                   	retq   

0000000000004ff3 <_ZNSt16allocator_traitsISaIN8Debugger9addrRangeEEE8max_sizeERKS2_>:
    4ff3:	f3 0f 1e fa          	endbr64 
    4ff7:	55                   	push   %rbp
    4ff8:	48 89 e5             	mov    %rsp,%rbp
    4ffb:	48 83 ec 10          	sub    $0x10,%rsp
    4fff:	48 89 7d f8          	mov    %rdi,-0x8(%rbp)
    5003:	48 8b 45 f8          	mov    -0x8(%rbp),%rax
    5007:	48 89 c7             	mov    %rax,%rdi
    500a:	e8 03 00 00 00       	callq  5012 <_ZNK9__gnu_cxx13new_allocatorIN8Debugger9addrRangeEE8max_sizeEv>
    500f:	c9                   	leaveq 
    5010:	c3                   	retq   
    5011:	90                   	nop

0000000000005012 <_ZNK9__gnu_cxx13new_allocatorIN8Debugger9addrRangeEE8max_sizeEv>:
    5012:	f3 0f 1e fa          	endbr64 
    5016:	55                   	push   %rbp
    5017:	48 89 e5             	mov    %rsp,%rbp
    501a:	48 89 7d f8          	mov    %rdi,-0x8(%rbp)
    501e:	48 b8 ce c7 e0 7c 0c 	movabs $0xc7ce0c7ce0c7ce,%rax
    5025:	ce c7 00 
    5028:	5d                   	pop    %rbp
    5029:	c3                   	retq   

000000000000502a <_ZSt12__niter_baseIPN8Debugger9addrRangeEET_S3_>:
    502a:	f3 0f 1e fa          	endbr64 
    502e:	55                   	push   %rbp
    502f:	48 89 e5             	mov    %rsp,%rbp
    5032:	48 89 7d f8          	mov    %rdi,-0x8(%rbp)
    5036:	48 8b 45 f8          	mov    -0x8(%rbp),%rax
    503a:	5d                   	pop    %rbp
    503b:	c3                   	retq   

000000000000503c <_ZSt14__relocate_a_1IN8Debugger9addrRangeES1_ENSt9enable_ifIXsrSt24__is_bitwise_relocatableIT_vE5valueEPS4_E4typeES6_S6_S6_RSaIT0_E>:
    503c:	f3 0f 1e fa          	endbr64 
    5040:	55                   	push   %rbp
    5041:	48 89 e5             	mov    %rsp,%rbp
    5044:	48 83 ec 30          	sub    $0x30,%rsp
    5048:	48 89 7d e8          	mov    %rdi,-0x18(%rbp)
    504c:	48 89 75 e0          	mov    %rsi,-0x20(%rbp)
    5050:	48 89 55 d8          	mov    %rdx,-0x28(%rbp)
    5054:	48 89 4d d0          	mov    %rcx,-0x30(%rbp)
    5058:	48 8b 45 e0          	mov    -0x20(%rbp),%rax
    505c:	48 2b 45 e8          	sub    -0x18(%rbp),%rax
    5060:	48 c1 f8 02          	sar    $0x2,%rax
    5064:	48 89 c2             	mov    %rax,%rdx
    5067:	48 b8 19 9c 8f c1 f9 	movabs $0x8f9c18f9c18f9c19,%rax
    506e:	18 9c 8f 
    5071:	48 0f af c2          	imul   %rdx,%rax
    5075:	48 89 45 f8          	mov    %rax,-0x8(%rbp)
    5079:	48 83 7d f8 00       	cmpq   $0x0,-0x8(%rbp)
    507e:	7e 2f                	jle    50af <_ZSt14__relocate_a_1IN8Debugger9addrRangeES1_ENSt9enable_ifIXsrSt24__is_bitwise_relocatableIT_vE5valueEPS4_E4typeES6_S6_S6_RSaIT0_E+0x73>
    5080:	48 8b 55 f8          	mov    -0x8(%rbp),%rdx
    5084:	48 89 d0             	mov    %rdx,%rax
    5087:	48 c1 e0 02          	shl    $0x2,%rax
    508b:	48 01 d0             	add    %rdx,%rax
    508e:	48 c1 e0 03          	shl    $0x3,%rax
    5092:	48 01 d0             	add    %rdx,%rax
    5095:	48 c1 e0 02          	shl    $0x2,%rax
    5099:	48 89 c2             	mov    %rax,%rdx
    509c:	48 8b 4d e8          	mov    -0x18(%rbp),%rcx
    50a0:	48 8b 45 d8          	mov    -0x28(%rbp),%rax
    50a4:	48 89 ce             	mov    %rcx,%rsi
    50a7:	48 89 c7             	mov    %rax,%rdi
    50aa:	e8 f1 d5 ff ff       	callq  26a0 <memmove@plt>
    50af:	48 8b 55 f8          	mov    -0x8(%rbp),%rdx
    50b3:	48 89 d0             	mov    %rdx,%rax
    50b6:	48 c1 e0 02          	shl    $0x2,%rax
    50ba:	48 01 d0             	add    %rdx,%rax
    50bd:	48 c1 e0 03          	shl    $0x3,%rax
    50c1:	48 01 d0             	add    %rdx,%rax
    50c4:	48 c1 e0 02          	shl    $0x2,%rax
    50c8:	48 89 c2             	mov    %rax,%rdx
    50cb:	48 8b 45 d8          	mov    -0x28(%rbp),%rax
    50cf:	48 01 d0             	add    %rdx,%rax
    50d2:	c9                   	leaveq 
    50d3:	c3                   	retq   

00000000000050d4 <_ZNSt20__uninitialized_copyILb1EE13__uninit_copyISt13move_iteratorIPN8Debugger9addrRangeEES5_EET0_T_S8_S7_>:
    50d4:	f3 0f 1e fa          	endbr64 
    50d8:	55                   	push   %rbp
    50d9:	48 89 e5             	mov    %rsp,%rbp
    50dc:	48 83 ec 20          	sub    $0x20,%rsp
    50e0:	48 89 7d f8          	mov    %rdi,-0x8(%rbp)
    50e4:	48 89 75 f0          	mov    %rsi,-0x10(%rbp)
    50e8:	48 89 55 e8          	mov    %rdx,-0x18(%rbp)
    50ec:	48 8b 55 e8          	mov    -0x18(%rbp),%rdx
    50f0:	48 8b 4d f0          	mov    -0x10(%rbp),%rcx
    50f4:	48 8b 45 f8          	mov    -0x8(%rbp),%rax
    50f8:	48 89 ce             	mov    %rcx,%rsi
    50fb:	48 89 c7             	mov    %rax,%rdi
    50fe:	e8 96 00 00 00       	callq  5199 <_ZSt4copyISt13move_iteratorIPN8Debugger9addrRangeEES3_ET0_T_S6_S5_>
    5103:	c9                   	leaveq 
    5104:	c3                   	retq   

0000000000005105 <_ZSt19__iterator_categoryIPcENSt15iterator_traitsIT_E17iterator_categoryERKS2_>:
    5105:	f3 0f 1e fa          	endbr64 
    5109:	55                   	push   %rbp
    510a:	48 89 e5             	mov    %rsp,%rbp
    510d:	48 89 7d f8          	mov    %rdi,-0x8(%rbp)
    5111:	5d                   	pop    %rbp
    5112:	c3                   	retq   

0000000000005113 <_ZSt10__distanceIPcENSt15iterator_traitsIT_E15difference_typeES2_S2_St26random_access_iterator_tag>:
    5113:	f3 0f 1e fa          	endbr64 
    5117:	55                   	push   %rbp
    5118:	48 89 e5             	mov    %rsp,%rbp
    511b:	48 89 7d f8          	mov    %rdi,-0x8(%rbp)
    511f:	48 89 75 f0          	mov    %rsi,-0x10(%rbp)
    5123:	48 8b 45 f0          	mov    -0x10(%rbp),%rax
    5127:	48 2b 45 f8          	sub    -0x8(%rbp),%rax
    512b:	5d                   	pop    %rbp
    512c:	c3                   	retq   

000000000000512d <_ZSt12__niter_baseIPKN8Debugger9addrRangeESt6vectorIS1_SaIS1_EEET_N9__gnu_cxx17__normal_iteratorIS7_T0_EE>:
    512d:	f3 0f 1e fa          	endbr64 
    5131:	55                   	push   %rbp
    5132:	48 89 e5             	mov    %rsp,%rbp
    5135:	48 83 ec 10          	sub    $0x10,%rsp
    5139:	48 89 7d f8          	mov    %rdi,-0x8(%rbp)
    513d:	48 8d 45 f8          	lea    -0x8(%rbp),%rax
    5141:	48 89 c7             	mov    %rax,%rdi
    5144:	e8 a1 00 00 00       	callq  51ea <_ZNK9__gnu_cxx17__normal_iteratorIPKN8Debugger9addrRangeESt6vectorIS2_SaIS2_EEE4baseEv>
    5149:	48 8b 00             	mov    (%rax),%rax
    514c:	c9                   	leaveq 
    514d:	c3                   	retq   

000000000000514e <_ZSt13__copy_move_aILb0EPKN8Debugger9addrRangeEPS1_ET1_T0_S6_S5_>:
    514e:	f3 0f 1e fa          	endbr64 
    5152:	55                   	push   %rbp
    5153:	48 89 e5             	mov    %rsp,%rbp
    5156:	48 83 ec 30          	sub    $0x30,%rsp
    515a:	48 89 7d e8          	mov    %rdi,-0x18(%rbp)
    515e:	48 89 75 e0          	mov    %rsi,-0x20(%rbp)
    5162:	48 89 55 d8          	mov    %rdx,-0x28(%rbp)
    5166:	c6 45 ff 01          	movb   $0x1,-0x1(%rbp)
    516a:	48 8b 55 d8          	mov    -0x28(%rbp),%rdx
    516e:	48 8b 4d e0          	mov    -0x20(%rbp),%rcx
    5172:	48 8b 45 e8          	mov    -0x18(%rbp),%rax
    5176:	48 89 ce             	mov    %rcx,%rsi
    5179:	48 89 c7             	mov    %rax,%rdi
    517c:	e8 7b 00 00 00       	callq  51fc <_ZNSt11__copy_moveILb0ELb1ESt26random_access_iterator_tagE8__copy_mIN8Debugger9addrRangeEEEPT_PKS5_S8_S6_>
    5181:	c9                   	leaveq 
    5182:	c3                   	retq   

0000000000005183 <_ZSt12__niter_wrapIPN8Debugger9addrRangeEET_RKS3_S3_>:
    5183:	f3 0f 1e fa          	endbr64 
    5187:	55                   	push   %rbp
    5188:	48 89 e5             	mov    %rsp,%rbp
    518b:	48 89 7d f8          	mov    %rdi,-0x8(%rbp)
    518f:	48 89 75 f0          	mov    %rsi,-0x10(%rbp)
    5193:	48 8b 45 f0          	mov    -0x10(%rbp),%rax
    5197:	5d                   	pop    %rbp
    5198:	c3                   	retq   

0000000000005199 <_ZSt4copyISt13move_iteratorIPN8Debugger9addrRangeEES3_ET0_T_S6_S5_>:
    5199:	f3 0f 1e fa          	endbr64 
    519d:	55                   	push   %rbp
    519e:	48 89 e5             	mov    %rsp,%rbp
    51a1:	53                   	push   %rbx
    51a2:	48 83 ec 28          	sub    $0x28,%rsp
    51a6:	48 89 7d e8          	mov    %rdi,-0x18(%rbp)
    51aa:	48 89 75 e0          	mov    %rsi,-0x20(%rbp)
    51ae:	48 89 55 d8          	mov    %rdx,-0x28(%rbp)
    51b2:	48 8b 45 e0          	mov    -0x20(%rbp),%rax
    51b6:	48 89 c7             	mov    %rax,%rdi
    51b9:	e8 d2 00 00 00       	callq  5290 <_ZSt12__miter_baseIPN8Debugger9addrRangeEEDTcl12__miter_basecldtfp_4baseEEESt13move_iteratorIT_E>
    51be:	48 89 c3             	mov    %rax,%rbx
    51c1:	48 8b 45 e8          	mov    -0x18(%rbp),%rax
    51c5:	48 89 c7             	mov    %rax,%rdi
    51c8:	e8 c3 00 00 00       	callq  5290 <_ZSt12__miter_baseIPN8Debugger9addrRangeEEDTcl12__miter_basecldtfp_4baseEEESt13move_iteratorIT_E>
    51cd:	48 89 c1             	mov    %rax,%rcx
    51d0:	48 8b 45 d8          	mov    -0x28(%rbp),%rax
    51d4:	48 89 c2             	mov    %rax,%rdx
    51d7:	48 89 de             	mov    %rbx,%rsi
    51da:	48 89 cf             	mov    %rcx,%rdi
    51dd:	e8 d4 00 00 00       	callq  52b6 <_ZSt14__copy_move_a2ILb1EPN8Debugger9addrRangeES2_ET1_T0_S4_S3_>
    51e2:	48 83 c4 28          	add    $0x28,%rsp
    51e6:	5b                   	pop    %rbx
    51e7:	5d                   	pop    %rbp
    51e8:	c3                   	retq   
    51e9:	90                   	nop

00000000000051ea <_ZNK9__gnu_cxx17__normal_iteratorIPKN8Debugger9addrRangeESt6vectorIS2_SaIS2_EEE4baseEv>:
    51ea:	f3 0f 1e fa          	endbr64 
    51ee:	55                   	push   %rbp
    51ef:	48 89 e5             	mov    %rsp,%rbp
    51f2:	48 89 7d f8          	mov    %rdi,-0x8(%rbp)
    51f6:	48 8b 45 f8          	mov    -0x8(%rbp),%rax
    51fa:	5d                   	pop    %rbp
    51fb:	c3                   	retq   

00000000000051fc <_ZNSt11__copy_moveILb0ELb1ESt26random_access_iterator_tagE8__copy_mIN8Debugger9addrRangeEEEPT_PKS5_S8_S6_>:
    51fc:	f3 0f 1e fa          	endbr64 
    5200:	55                   	push   %rbp
    5201:	48 89 e5             	mov    %rsp,%rbp
    5204:	48 83 ec 30          	sub    $0x30,%rsp
    5208:	48 89 7d e8          	mov    %rdi,-0x18(%rbp)
    520c:	48 89 75 e0          	mov    %rsi,-0x20(%rbp)
    5210:	48 89 55 d8          	mov    %rdx,-0x28(%rbp)
    5214:	48 8b 45 e0          	mov    -0x20(%rbp),%rax
    5218:	48 2b 45 e8          	sub    -0x18(%rbp),%rax
    521c:	48 c1 f8 02          	sar    $0x2,%rax
    5220:	48 89 c2             	mov    %rax,%rdx
    5223:	48 b8 19 9c 8f c1 f9 	movabs $0x8f9c18f9c18f9c19,%rax
    522a:	18 9c 8f 
    522d:	48 0f af c2          	imul   %rdx,%rax
    5231:	48 89 45 f8          	mov    %rax,-0x8(%rbp)
    5235:	48 83 7d f8 00       	cmpq   $0x0,-0x8(%rbp)
    523a:	74 2f                	je     526b <_ZNSt11__copy_moveILb0ELb1ESt26random_access_iterator_tagE8__copy_mIN8Debugger9addrRangeEEEPT_PKS5_S8_S6_+0x6f>
    523c:	48 8b 55 f8          	mov    -0x8(%rbp),%rdx
    5240:	48 89 d0             	mov    %rdx,%rax
    5243:	48 c1 e0 02          	shl    $0x2,%rax
    5247:	48 01 d0             	add    %rdx,%rax
    524a:	48 c1 e0 03          	shl    $0x3,%rax
    524e:	48 01 d0             	add    %rdx,%rax
    5251:	48 c1 e0 02          	shl    $0x2,%rax
    5255:	48 89 c2             	mov    %rax,%rdx
    5258:	48 8b 4d e8          	mov    -0x18(%rbp),%rcx
    525c:	48 8b 45 d8          	mov    -0x28(%rbp),%rax
    5260:	48 89 ce             	mov    %rcx,%rsi
    5263:	48 89 c7             	mov    %rax,%rdi
    5266:	e8 35 d4 ff ff       	callq  26a0 <memmove@plt>
    526b:	48 8b 55 f8          	mov    -0x8(%rbp),%rdx
    526f:	48 89 d0             	mov    %rdx,%rax
    5272:	48 c1 e0 02          	shl    $0x2,%rax
    5276:	48 01 d0             	add    %rdx,%rax
    5279:	48 c1 e0 03          	shl    $0x3,%rax
    527d:	48 01 d0             	add    %rdx,%rax
    5280:	48 c1 e0 02          	shl    $0x2,%rax
    5284:	48 89 c2             	mov    %rax,%rdx
    5287:	48 8b 45 d8          	mov    -0x28(%rbp),%rax
    528b:	48 01 d0             	add    %rdx,%rax
    528e:	c9                   	leaveq 
    528f:	c3                   	retq   

0000000000005290 <_ZSt12__miter_baseIPN8Debugger9addrRangeEEDTcl12__miter_basecldtfp_4baseEEESt13move_iteratorIT_E>:
    5290:	f3 0f 1e fa          	endbr64 
    5294:	55                   	push   %rbp
    5295:	48 89 e5             	mov    %rsp,%rbp
    5298:	48 83 ec 10          	sub    $0x10,%rsp
    529c:	48 89 7d f8          	mov    %rdi,-0x8(%rbp)
    52a0:	48 8d 45 f8          	lea    -0x8(%rbp),%rax
    52a4:	48 89 c7             	mov    %rax,%rdi
    52a7:	e8 78 00 00 00       	callq  5324 <_ZNKSt13move_iteratorIPN8Debugger9addrRangeEE4baseEv>
    52ac:	48 89 c7             	mov    %rax,%rdi
    52af:	e8 85 00 00 00       	callq  5339 <_ZSt12__miter_baseIPN8Debugger9addrRangeEET_S3_>
    52b4:	c9                   	leaveq 
    52b5:	c3                   	retq   

00000000000052b6 <_ZSt14__copy_move_a2ILb1EPN8Debugger9addrRangeES2_ET1_T0_S4_S3_>:
    52b6:	f3 0f 1e fa          	endbr64 
    52ba:	55                   	push   %rbp
    52bb:	48 89 e5             	mov    %rsp,%rbp
    52be:	41 54                	push   %r12
    52c0:	53                   	push   %rbx
    52c1:	48 83 ec 20          	sub    $0x20,%rsp
    52c5:	48 89 7d e8          	mov    %rdi,-0x18(%rbp)
    52c9:	48 89 75 e0          	mov    %rsi,-0x20(%rbp)
    52cd:	48 89 55 d8          	mov    %rdx,-0x28(%rbp)
    52d1:	48 8b 45 d8          	mov    -0x28(%rbp),%rax
    52d5:	48 89 c7             	mov    %rax,%rdi
    52d8:	e8 4d fd ff ff       	callq  502a <_ZSt12__niter_baseIPN8Debugger9addrRangeEET_S3_>
    52dd:	49 89 c4             	mov    %rax,%r12
    52e0:	48 8b 45 e0          	mov    -0x20(%rbp),%rax
    52e4:	48 89 c7             	mov    %rax,%rdi
    52e7:	e8 3e fd ff ff       	callq  502a <_ZSt12__niter_baseIPN8Debugger9addrRangeEET_S3_>
    52ec:	48 89 c3             	mov    %rax,%rbx
    52ef:	48 8b 45 e8          	mov    -0x18(%rbp),%rax
    52f3:	48 89 c7             	mov    %rax,%rdi
    52f6:	e8 2f fd ff ff       	callq  502a <_ZSt12__niter_baseIPN8Debugger9addrRangeEET_S3_>
    52fb:	4c 89 e2             	mov    %r12,%rdx
    52fe:	48 89 de             	mov    %rbx,%rsi
    5301:	48 89 c7             	mov    %rax,%rdi
    5304:	e8 42 00 00 00       	callq  534b <_ZSt13__copy_move_aILb1EPN8Debugger9addrRangeES2_ET1_T0_S4_S3_>
    5309:	48 89 c2             	mov    %rax,%rdx
    530c:	48 8d 45 d8          	lea    -0x28(%rbp),%rax
    5310:	48 89 d6             	mov    %rdx,%rsi
    5313:	48 89 c7             	mov    %rax,%rdi
    5316:	e8 68 fe ff ff       	callq  5183 <_ZSt12__niter_wrapIPN8Debugger9addrRangeEET_RKS3_S3_>
    531b:	48 83 c4 20          	add    $0x20,%rsp
    531f:	5b                   	pop    %rbx
    5320:	41 5c                	pop    %r12
    5322:	5d                   	pop    %rbp
    5323:	c3                   	retq   

0000000000005324 <_ZNKSt13move_iteratorIPN8Debugger9addrRangeEE4baseEv>:
    5324:	f3 0f 1e fa          	endbr64 
    5328:	55                   	push   %rbp
    5329:	48 89 e5             	mov    %rsp,%rbp
    532c:	48 89 7d f8          	mov    %rdi,-0x8(%rbp)
    5330:	48 8b 45 f8          	mov    -0x8(%rbp),%rax
    5334:	48 8b 00             	mov    (%rax),%rax
    5337:	5d                   	pop    %rbp
    5338:	c3                   	retq   

0000000000005339 <_ZSt12__miter_baseIPN8Debugger9addrRangeEET_S3_>:
    5339:	f3 0f 1e fa          	endbr64 
    533d:	55                   	push   %rbp
    533e:	48 89 e5             	mov    %rsp,%rbp
    5341:	48 89 7d f8          	mov    %rdi,-0x8(%rbp)
    5345:	48 8b 45 f8          	mov    -0x8(%rbp),%rax
    5349:	5d                   	pop    %rbp
    534a:	c3                   	retq   

000000000000534b <_ZSt13__copy_move_aILb1EPN8Debugger9addrRangeES2_ET1_T0_S4_S3_>:
    534b:	f3 0f 1e fa          	endbr64 
    534f:	55                   	push   %rbp
    5350:	48 89 e5             	mov    %rsp,%rbp
    5353:	48 83 ec 30          	sub    $0x30,%rsp
    5357:	48 89 7d e8          	mov    %rdi,-0x18(%rbp)
    535b:	48 89 75 e0          	mov    %rsi,-0x20(%rbp)
    535f:	48 89 55 d8          	mov    %rdx,-0x28(%rbp)
    5363:	c6 45 ff 01          	movb   $0x1,-0x1(%rbp)
    5367:	48 8b 55 d8          	mov    -0x28(%rbp),%rdx
    536b:	48 8b 4d e0          	mov    -0x20(%rbp),%rcx
    536f:	48 8b 45 e8          	mov    -0x18(%rbp),%rax
    5373:	48 89 ce             	mov    %rcx,%rsi
    5376:	48 89 c7             	mov    %rax,%rdi
    5379:	e8 02 00 00 00       	callq  5380 <_ZNSt11__copy_moveILb1ELb1ESt26random_access_iterator_tagE8__copy_mIN8Debugger9addrRangeEEEPT_PKS5_S8_S6_>
    537e:	c9                   	leaveq 
    537f:	c3                   	retq   

0000000000005380 <_ZNSt11__copy_moveILb1ELb1ESt26random_access_iterator_tagE8__copy_mIN8Debugger9addrRangeEEEPT_PKS5_S8_S6_>:
    5380:	f3 0f 1e fa          	endbr64 
    5384:	55                   	push   %rbp
    5385:	48 89 e5             	mov    %rsp,%rbp
    5388:	48 83 ec 30          	sub    $0x30,%rsp
    538c:	48 89 7d e8          	mov    %rdi,-0x18(%rbp)
    5390:	48 89 75 e0          	mov    %rsi,-0x20(%rbp)
    5394:	48 89 55 d8          	mov    %rdx,-0x28(%rbp)
    5398:	48 8b 45 e0          	mov    -0x20(%rbp),%rax
    539c:	48 2b 45 e8          	sub    -0x18(%rbp),%rax
    53a0:	48 c1 f8 02          	sar    $0x2,%rax
    53a4:	48 89 c2             	mov    %rax,%rdx
    53a7:	48 b8 19 9c 8f c1 f9 	movabs $0x8f9c18f9c18f9c19,%rax
    53ae:	18 9c 8f 
    53b1:	48 0f af c2          	imul   %rdx,%rax
    53b5:	48 89 45 f8          	mov    %rax,-0x8(%rbp)
    53b9:	48 83 7d f8 00       	cmpq   $0x0,-0x8(%rbp)
    53be:	74 2f                	je     53ef <_ZNSt11__copy_moveILb1ELb1ESt26random_access_iterator_tagE8__copy_mIN8Debugger9addrRangeEEEPT_PKS5_S8_S6_+0x6f>
    53c0:	48 8b 55 f8          	mov    -0x8(%rbp),%rdx
    53c4:	48 89 d0             	mov    %rdx,%rax
    53c7:	48 c1 e0 02          	shl    $0x2,%rax
    53cb:	48 01 d0             	add    %rdx,%rax
    53ce:	48 c1 e0 03          	shl    $0x3,%rax
    53d2:	48 01 d0             	add    %rdx,%rax
    53d5:	48 c1 e0 02          	shl    $0x2,%rax
    53d9:	48 89 c2             	mov    %rax,%rdx
    53dc:	48 8b 4d e8          	mov    -0x18(%rbp),%rcx
    53e0:	48 8b 45 d8          	mov    -0x28(%rbp),%rax
    53e4:	48 89 ce             	mov    %rcx,%rsi
    53e7:	48 89 c7             	mov    %rax,%rdi
    53ea:	e8 b1 d2 ff ff       	callq  26a0 <memmove@plt>
    53ef:	48 8b 55 f8          	mov    -0x8(%rbp),%rdx
    53f3:	48 89 d0             	mov    %rdx,%rax
    53f6:	48 c1 e0 02          	shl    $0x2,%rax
    53fa:	48 01 d0             	add    %rdx,%rax
    53fd:	48 c1 e0 03          	shl    $0x3,%rax
    5401:	48 01 d0             	add    %rdx,%rax
    5404:	48 c1 e0 02          	shl    $0x2,%rax
    5408:	48 89 c2             	mov    %rax,%rdx
    540b:	48 8b 45 d8          	mov    -0x28(%rbp),%rax
    540f:	48 01 d0             	add    %rdx,%rax
    5412:	c9                   	leaveq 
    5413:	c3                   	retq   
    5414:	66 2e 0f 1f 84 00 00 	nopw   %cs:0x0(%rax,%rax,1)
    541b:	00 00 00 
    541e:	66 90                	xchg   %ax,%ax

0000000000005420 <__libc_csu_init>:
    5420:	f3 0f 1e fa          	endbr64 
    5424:	41 57                	push   %r15
    5426:	4c 8d 3d 83 37 00 00 	lea    0x3783(%rip),%r15        # 8bb0 <__frame_dummy_init_array_entry>
    542d:	41 56                	push   %r14
    542f:	49 89 d6             	mov    %rdx,%r14
    5432:	41 55                	push   %r13
    5434:	49 89 f5             	mov    %rsi,%r13
    5437:	41 54                	push   %r12
    5439:	41 89 fc             	mov    %edi,%r12d
    543c:	55                   	push   %rbp
    543d:	48 8d 2d 7c 37 00 00 	lea    0x377c(%rip),%rbp        # 8bc0 <__do_global_dtors_aux_fini_array_entry>
    5444:	53                   	push   %rbx
    5445:	4c 29 fd             	sub    %r15,%rbp
    5448:	48 83 ec 08          	sub    $0x8,%rsp
    544c:	e8 af cb ff ff       	callq  2000 <_init>
    5451:	48 c1 fd 03          	sar    $0x3,%rbp
    5455:	74 1f                	je     5476 <__libc_csu_init+0x56>
    5457:	31 db                	xor    %ebx,%ebx
    5459:	0f 1f 80 00 00 00 00 	nopl   0x0(%rax)
    5460:	4c 89 f2             	mov    %r14,%rdx
    5463:	4c 89 ee             	mov    %r13,%rsi
    5466:	44 89 e7             	mov    %r12d,%edi
    5469:	41 ff 14 df          	callq  *(%r15,%rbx,8)
    546d:	48 83 c3 01          	add    $0x1,%rbx
    5471:	48 39 dd             	cmp    %rbx,%rbp
    5474:	75 ea                	jne    5460 <__libc_csu_init+0x40>
    5476:	48 83 c4 08          	add    $0x8,%rsp
    547a:	5b                   	pop    %rbx
    547b:	5d                   	pop    %rbp
    547c:	41 5c                	pop    %r12
    547e:	41 5d                	pop    %r13
    5480:	41 5e                	pop    %r14
    5482:	41 5f                	pop    %r15
    5484:	c3                   	retq   
    5485:	66 66 2e 0f 1f 84 00 	data16 nopw %cs:0x0(%rax,%rax,1)
    548c:	00 00 00 00 

0000000000005490 <__libc_csu_fini>:
    5490:	f3 0f 1e fa          	endbr64 
    5494:	c3                   	retq   

Disassembly of section .fini:

0000000000005498 <_fini>:
    5498:	f3 0f 1e fa          	endbr64 
    549c:	48 83 ec 08          	sub    $0x8,%rsp
    54a0:	48 83 c4 08          	add    $0x8,%rsp
    54a4:	c3                   	retq   
